
robot117.out:     file format elf32-avr
robot117.out
architecture: avr:5, flags 0x00000112:
EXEC_P, HAS_SYMS, D_PAGED
start address 0x00000000

Program Header:
    LOAD off    0x00000074 vaddr 0x00000000 paddr 0x00000000 align 2**1
         filesz 0x0000009e memsz 0x0000009e flags r-x
    LOAD off    0x00000112 vaddr 0x00800100 paddr 0x0000009e align 2**0
         filesz 0x00000000 memsz 0x00000000 flags rw-

Sections:
Idx Name          Size      VMA       LMA       File off  Algn
  0 .data         00000000  00800100  0000009e  00000112  2**0
                  CONTENTS, ALLOC, LOAD, DATA
  1 .text         0000009e  00000000  00000000  00000074  2**1
                  CONTENTS, ALLOC, LOAD, READONLY, CODE
  2 .comment      00000011  00000000  00000000  00000112  2**0
                  CONTENTS, READONLY
  3 .note.gnu.avr.deviceinfo 00000040  00000000  00000000  00000124  2**2
                  CONTENTS, READONLY
  4 .debug_aranges 00000040  00000000  00000000  00000168  2**3
                  CONTENTS, READONLY, DEBUGGING
  5 .debug_info   000007fc  00000000  00000000  000001a8  2**0
                  CONTENTS, READONLY, DEBUGGING
  6 .debug_abbrev 0000076d  00000000  00000000  000009a4  2**0
                  CONTENTS, READONLY, DEBUGGING
  7 .debug_line   000000f4  00000000  00000000  00001111  2**0
                  CONTENTS, READONLY, DEBUGGING
  8 .debug_frame  00000024  00000000  00000000  00001208  2**2
                  CONTENTS, READONLY, DEBUGGING
  9 .debug_str    00000458  00000000  00000000  0000122c  2**0
                  CONTENTS, READONLY, DEBUGGING
 10 .debug_ranges 00000010  00000000  00000000  00001684  2**0
                  CONTENTS, READONLY, DEBUGGING
SYMBOL TABLE:
00800100 l    d  .data	00000000 .data
00000000 l    d  .text	00000000 .text
00000000 l    d  .comment	00000000 .comment
00000000 l    d  .note.gnu.avr.deviceinfo	00000000 .note.gnu.avr.deviceinfo
00000000 l    d  .debug_aranges	00000000 .debug_aranges
00000000 l    d  .debug_info	00000000 .debug_info
00000000 l    d  .debug_abbrev	00000000 .debug_abbrev
00000000 l    d  .debug_line	00000000 .debug_line
00000000 l    d  .debug_frame	00000000 .debug_frame
00000000 l    d  .debug_str	00000000 .debug_str
00000000 l    d  .debug_ranges	00000000 .debug_ranges
00000000 l    df *ABS*	00000000 pb1.cpp
0000003e l       *ABS*	00000000 __SP_H__
0000003d l       *ABS*	00000000 __SP_L__
0000003f l       *ABS*	00000000 __SREG__
00000000 l       *ABS*	00000000 __tmp_reg__
00000001 l       *ABS*	00000000 __zero_reg__
00000000 l    df *ABS*	00000000 _exit.o
0000009c l       .text	00000000 __stop_program
00000090  w      .text	00000000 __vector_22
00000090  w      .text	00000000 __vector_28
00000090  w      .text	00000000 __vector_1
0000ffa0 g       *ABS*	00000000 __DATA_REGION_LENGTH__
0000007c g       .text	00000000 __trampolines_start
0000009e g       .text	00000000 _etext
00000090  w      .text	00000000 __vector_24
00000090  w      .text	00000000 __vector_12
00000090 g       .text	00000000 __bad_interrupt
0000009e g       *ABS*	00000000 __data_load_end
00000090  w      .text	00000000 __vector_6
0000007c g       .text	00000000 __trampolines_end
00000090  w      .text	00000000 __vector_3
00000090  w      .text	00000000 __vector_23
0000009e g       *ABS*	00000000 __data_load_start
0000007c g       .text	00000000 __dtors_end
00000090  w      .text	00000000 __vector_30
00000400 g       *ABS*	00000000 __LOCK_REGION_LENGTH__
00000090  w      .text	00000000 __vector_25
00000090  w      .text	00000000 __vector_11
0000007c  w      .text	00000000 __init
00000090  w      .text	00000000 __vector_13
00000090  w      .text	00000000 __vector_17
00000090  w      .text	00000000 __vector_19
00000090  w      .text	00000000 __vector_7
00810000 g       .text	00000000 __eeprom_end
00000000 g       .text	00000000 __vectors
00000090  w      .text	00000000 __vector_27
00000000  w      .text	00000000 __vector_default
00000090  w      .text	00000000 __vector_5
00000400 g       *ABS*	00000000 __SIGNATURE_REGION_LENGTH__
0000007c g       .text	00000000 __ctors_start
00000094 g     F .text	00000006 main
00000090  w      .text	00000000 __vector_4
00000000  w      *ABS*	00000000 __heap_end
00000090  w      .text	00000000 __vector_9
00000090  w      .text	00000000 __vector_2
00000400 g       *ABS*	00000000 __USER_SIGNATURE_REGION_LENGTH__
00000090  w      .text	00000000 __vector_21
00000090  w      .text	00000000 __vector_15
00000090  w      .text	00000000 __vector_29
0000007c g       .text	00000000 __dtors_start
0000007c g       .text	00000000 __ctors_end
000008ff  w      *ABS*	00000000 __stack
00800100 g       .data	00000000 _edata
00800100 g       .text	00000000 _end
00000090  w      .text	00000000 __vector_8
00000090  w      .text	00000000 __vector_26
0000009a  w      .text	00000000 .hidden exit
00010000 g       *ABS*	00000000 __EEPROM_REGION_LENGTH__
0000009a g       .text	00000000 .hidden _exit
00000090  w      .text	00000000 __vector_14
00000090  w      .text	00000000 __vector_10
00000090  w      .text	00000000 __vector_16
00000090  w      .text	00000000 __vector_18
00000400 g       *ABS*	00000000 __FUSE_REGION_LENGTH__
00020000 g       *ABS*	00000000 __TEXT_REGION_LENGTH__
00000090  w      .text	00000000 __vector_20


Contents of section .text:
 0000 0c943e00 0c944800 0c944800 0c944800  ..>...H...H...H.
 0010 0c944800 0c944800 0c944800 0c944800  ..H...H...H...H.
 0020 0c944800 0c944800 0c944800 0c944800  ..H...H...H...H.
 0030 0c944800 0c944800 0c944800 0c944800  ..H...H...H...H.
 0040 0c944800 0c944800 0c944800 0c944800  ..H...H...H...H.
 0050 0c944800 0c944800 0c944800 0c944800  ..H...H...H...H.
 0060 0c944800 0c944800 0c944800 0c944800  ..H...H...H...H.
 0070 0c944800 0c944800 0c944800 11241fbe  ..H...H...H..$..
 0080 cfefd8e0 debfcdbf 0e944a00 0c944d00  ..........J...M.
 0090 0c940000 90e080e0 0895f894 ffcf      ..............  
Contents of section .comment:
 0000 4743433a 2028474e 55292037 2e332e30  GCC: (GNU) 7.3.0
 0010 00                                   .               
Contents of section .note.gnu.avr.deviceinfo:
 0000 04000000 2e000000 01000000 41565200  ............AVR.
 0010 00000000 00800000 00010000 00080000  ................
 0020 00000000 00040000 08000000 01000000  ................
 0030 0061746d 65676133 32347061 00000000  .atmega324pa....
Contents of section .debug_aranges:
 0000 1c000000 0200cc06 00000400 00000000  ................
 0010 94000000 06000000 00000000 00000000  ................
 0020 1c000000 0200d607 00000400 00000000  ................
 0030 9a000000 04000000 00000000 00000000  ................
Contents of section .debug_info:
 0000 c8060000 02000000 00000401 00000000  ................
 0010 00000000 020f0000 00010803 17000000  ................
 0020 02070414 00000005 1b000000 ff030006  ................
 0030 20000000 00002200 00000105 03000081   .....".........
 0040 00072900 00000000 14000000 0105037b  ..)............{
 0050 00800008 30000000 00001400 00000105  ....0...........
 0060 03500080 00093500 00000000 14000000  .P....5.........
 0070 0105037f 0080000a 3b000000 00001400  ........;.......
 0080 00000105 03c60080 000b4000 00000000  ..........@.....
 0090 14000000 010503c0 0080000c 47000000  ............G...
 00a0 00001400 00000105 03c10080 000d4e00  ..............N.
 00b0 00000000 14000000 010503c2 0080000e  ................
 00c0 55000000 00001b00 00000105 03c40080  U...............
 00d0 000f5b00 00000000 14000000 01050322  ..[............"
 00e0 00800010 61000000 00001400 00000105  ....a...........
 00f0 03210080 00116600 00000000 14000000  .!....f.........
 0100 01050320 00800012 6b000000 00001400  ... ....k.......
 0110 00000105 03250080 00137100 00000000  .....%....q.....
 0120 14000000 01050324 00800014 76000000  .......$....v...
 0130 00001400 00000105 03230080 00157b00  .........#....{.
 0140 00000000 14000000 01050328 00800016  ...........(....
 0150 81000000 00001400 00000105 03270080  .............'..
 0160 00178600 00000000 14000000 01050326  ...............&
 0170 00800018 8b000000 00001400 00000105  ................
 0180 032b0080 00199100 00000000 14000000  .+..............
 0190 0105032a 0080001a 96000000 00001400  ...*............
 01a0 00000105 03290080 001b9b00 00000000  .....)..........
 01b0 14000000 01050348 0080001c a1000000  .......H........
 01c0 00001400 00000105 03470080 001da700  .........G......
 01d0 00000000 14000000 01050346 0080001e  ...........F....
 01e0 ad000000 00001400 00000105 03450080  .............E..
 01f0 001fb400 00000000 14000000 01050344  ...............D
 0200 00800020 bb000000 00001400 00000105  ... ............
 0210 036e0080 0021c200 00000000 14000000  .n...!..........
 0220 01050335 00800022 c8000000 00001400  ...5..."........
 0230 00000105 03430080 0023ce00 00000000  .....C...#......
 0240 14000000 01050370 00800024 d5000000  .......p...$....
 0250 00001400 00000105 03370080 0025db00  .........7...%..
 0260 00000000 14000000 010503b0 00800026  ...............&
 0270 e2000000 00001400 00000105 03b10080  ................
 0280 0027e900 00000000 14000000 010503b2  .'..............
 0290 00800028 ef000000 00001400 00000105  ...(............
 02a0 03b40080 0029f500 00000000 14000000  .....)..........
 02b0 010503b3 0080002a fb000000 00001400  .......*........
 02c0 00000105 03b60080 002b0001 00000000  .........+......
 02d0 14000000 01050343 0080002c 06010000  .......C...,....
 02e0 00001400 00000105 03600080 002d0d01  .........`...-..
 02f0 00000000 14000000 01050351 0080002e  ...........Q....
 0300 12010000 00001400 00000105 03550080  .............U..
 0310 002f1801 00000000 14000000 01050354  ./.............T
 0320 00800030 1e010000 00001400 00000105  ...0............
 0330 03570080 00312501 00000000 14000000  .W...1%.........
 0340 01050369 00800032 2b010000 00001400  ...i...2+.......
 0350 00000105 033d0080 00333101 00000000  .....=...31.....
 0360 14000000 0105033c 00800034 36010000  .......<...46...
 0370 00001400 00000105 03730080 00353d01  .........s...5=.
 0380 00000000 14000000 0105036d 00800036  ...........m...6
 0390 44010000 00001400 00000105 036c0080  D............l..
 03a0 00374b01 00000000 14000000 0105036b  .7K............k
 03b0 00800038 52010000 00001400 00000105  ...8R...........
 03c0 033b0080 00395801 00000000 14000000  .;...9X.........
 03d0 01050368 0080003a 5e010000 00001400  ...h...:^.......
 03e0 00000105 037c0080 003b6401 00000000  .....|...;d.....
 03f0 1b000000 01050378 0080003c 68010000  .......x...<h...
 0400 00001400 00000105 037a0080 003d6f01  .........z...=o.
 0410 00000000 14000000 0105037b 0080003e  ...........{...>
 0420 76010000 00001400 00000105 037e0080  v............~..
 0430 003f7c01 00000000 14000000 0105036f  .?|............o
 0440 00800040 83010000 00001400 00000105  ...@............
 0450 03360080 00418901 00000000 14000000  .6...A..........
 0460 01050380 00800042 90010000 00001400  .......B........
 0470 00000105 03810080 00439701 00000000  .........C......
 0480 14000000 01050382 00800044 9e010000  ...........D....
 0490 00001b00 00000105 03840080 0045a401  .............E..
 04a0 00000000 1b000000 01050388 00800046  ...............F
 04b0 aa010000 00001b00 00000105 038a0080  ................
 04c0 0047b001 00000000 1b000000 01050386  .G..............
 04d0 00800048 b5010000 00001b00 00000105  ...H............
 04e0 03410080 0049ba01 00000000 14000000  .A...I..........
 04f0 01050340 0080004a bf010000 00001400  ...@...J........
 0500 00000105 033f0080 004bc401 00000000  .....?...K......
 0510 14000000 0105034e 0080004c ca010000  .......N...L....
 0520 00001400 00000105 034d0080 004dd001  .........M...M..
 0530 00000000 14000000 0105034c 0080004e  ...........L...N
 0540 d6010000 00001400 00000105 03bd0080  ................
 0550 004fdc01 00000000 14000000 010503b8  .O..............
 0560 00800050 e1010000 00001400 00000105  ...P............
 0570 03bc0080 0051e601 00000000 14000000  .....Q..........
 0580 010503b9 00800052 eb010000 00001400  .......R........
 0590 00000105 03bb0080 0053f001 00000000  .........S......
 05a0 14000000 010503ba 00800054 f5010000  ...........T....
 05b0 00001400 00000105 03ce0080 0055fa01  .............U..
 05c0 00000000 14000000 010503c8 00800056  ...............V
 05d0 01020000 00001400 00000105 03c90080  ................
 05e0 00570802 00000000 14000000 010503ca  .W..............
 05f0 00800058 0f020000 00001b00 00000105  ...X............
 0600 03cc0080 00591502 00000000 14000000  .....Y..........
 0610 0105035f 0080005a 1a020000 00001b00  ..._...Z........
 0620 00000105 035d0080 005b1d02 00000000  .....]...[......
 0630 14000000 01050355 0080005c 23020000  .......U...\#...
 0640 00001400 00000105 03540080 005d2902  .........T...]).
 0650 00000000 14000000 01050366 0080005e  ...........f...^
 0660 30020000 00001400 00000105 03610080  0............a..
 0670 005f3602 00000000 14000000 01050353  ._6............S
 0680 00800060 3b020000 00001400 00000105  ...`;...........
 0690 034b0080 00614202 00000000 14000000  .K...aB.........
 06a0 0105034a 00800062 49020000 00001400  ...J...bI.......
 06b0 00000105 033e0080 00635002 00000000  .....>...cP.....
 06c0 14000000 01050364 00800000 06010000  .......d........
 06d0 04006e06 00000401 08030000 04550200  ..n..........U..
 06e0 00b70200 00000000 00000000 001d0000  ................
 06f0 00020106 95020000 03f90200 00027e37  ..............~7
 0700 00000002 01089302 00000402 05696e74  .............int
 0710 00020207 86020000 020405c6 03000002  ................
 0720 04078102 00000208 05c10300 00020807  ................
 0730 7c020000 05a60200 00020103 ad000000  |...............
 0740 06cf0300 0001052c 00000000 0107b002  .......,........
 0750 0000010a 2c000000 01080103 00000106  ....,...........
 0760 5d020000 2c000000 01a10000 0009ad00  ]...,...........
 0770 00000a2c 00000000 000b0268 0000000c  ...,.......h....
 0780 ad000000 0dab0200 00010d3e 00000094  ...........>....
 0790 00000006 00000001 9ce60000 000e6f02  ..............o.
 07a0 0000010e 68000000 08319f93 01329f93  ....h....1...2..
 07b0 01000f8d 000000f4 00000003 f4000000  ................
 07c0 10a10200 00b30000 00117402 00000106  ..........t.....
 07d0 2c000000 00002200 00000200 59070000  ,.....".....Y...
 07e0 04019300 00009a00 00009e00 0000d603  ................
 07f0 00000004 00004c04 00000180           ......L.....    
Contents of section .debug_abbrev:
 0000 01110125 0e100600 00022400 030e0b0b  ...%......$.....
 0010 3e0b0000 03240003 0e0b0b3e 0b000004  >....$.....>....
 0020 01014913 00000521 0049132f 05000006  ..I....!.I./....
 0030 3400030e 3a0b3b0b 49133f0c 020a0000  4...:.;.I.?.....
 0040 07340003 0e3a0b3b 0b49133f 0c020a00  .4...:.;.I.?....
 0050 00083400 030e3a0b 3b0b4913 3f0c020a  ..4...:.;.I.?...
 0060 00000934 00030e3a 0b3b0b49 133f0c02  ...4...:.;.I.?..
 0070 0a00000a 3400030e 3a0b3b0b 49133f0c  ....4...:.;.I.?.
 0080 020a0000 0b340003 0e3a0b3b 0b49133f  .....4...:.;.I.?
 0090 0c020a00 000c3400 030e3a0b 3b0b4913  ......4...:.;.I.
 00a0 3f0c020a 00000d34 00030e3a 0b3b0b49  ?......4...:.;.I
 00b0 133f0c02 0a00000e 3400030e 3a0b3b0b  .?......4...:.;.
 00c0 49133f0c 020a0000 0f340003 0e3a0b3b  I.?......4...:.;
 00d0 0b49133f 0c020a00 00103400 030e3a0b  .I.?......4...:.
 00e0 3b0b4913 3f0c020a 00001134 00030e3a  ;.I.?......4...:
 00f0 0b3b0b49 133f0c02 0a000012 3400030e  .;.I.?......4...
 0100 3a0b3b0b 49133f0c 020a0000 13340003  :.;.I.?......4..
 0110 0e3a0b3b 0b49133f 0c020a00 00143400  .:.;.I.?......4.
 0120 030e3a0b 3b0b4913 3f0c020a 00001534  ..:.;.I.?......4
 0130 00030e3a 0b3b0b49 133f0c02 0a000016  ...:.;.I.?......
 0140 3400030e 3a0b3b0b 49133f0c 020a0000  4...:.;.I.?.....
 0150 17340003 0e3a0b3b 0b49133f 0c020a00  .4...:.;.I.?....
 0160 00183400 030e3a0b 3b0b4913 3f0c020a  ..4...:.;.I.?...
 0170 00001934 00030e3a 0b3b0b49 133f0c02  ...4...:.;.I.?..
 0180 0a00001a 3400030e 3a0b3b0b 49133f0c  ....4...:.;.I.?.
 0190 020a0000 1b340003 0e3a0b3b 0b49133f  .....4...:.;.I.?
 01a0 0c020a00 001c3400 030e3a0b 3b0b4913  ......4...:.;.I.
 01b0 3f0c020a 00001d34 00030e3a 0b3b0b49  ?......4...:.;.I
 01c0 133f0c02 0a00001e 3400030e 3a0b3b0b  .?......4...:.;.
 01d0 49133f0c 020a0000 1f340003 0e3a0b3b  I.?......4...:.;
 01e0 0b49133f 0c020a00 00203400 030e3a0b  .I.?..... 4...:.
 01f0 3b0b4913 3f0c020a 00002134 00030e3a  ;.I.?.....!4...:
 0200 0b3b0b49 133f0c02 0a000022 3400030e  .;.I.?....."4...
 0210 3a0b3b0b 49133f0c 020a0000 23340003  :.;.I.?.....#4..
 0220 0e3a0b3b 0b49133f 0c020a00 00243400  .:.;.I.?.....$4.
 0230 030e3a0b 3b0b4913 3f0c020a 00002534  ..:.;.I.?.....%4
 0240 00030e3a 0b3b0b49 133f0c02 0a000026  ...:.;.I.?.....&
 0250 3400030e 3a0b3b0b 49133f0c 020a0000  4...:.;.I.?.....
 0260 27340003 0e3a0b3b 0b49133f 0c020a00  '4...:.;.I.?....
 0270 00283400 030e3a0b 3b0b4913 3f0c020a  .(4...:.;.I.?...
 0280 00002934 00030e3a 0b3b0b49 133f0c02  ..)4...:.;.I.?..
 0290 0a00002a 3400030e 3a0b3b0b 49133f0c  ...*4...:.;.I.?.
 02a0 020a0000 2b340003 0e3a0b3b 0b49133f  ....+4...:.;.I.?
 02b0 0c020a00 002c3400 030e3a0b 3b0b4913  .....,4...:.;.I.
 02c0 3f0c020a 00002d34 00030e3a 0b3b0b49  ?.....-4...:.;.I
 02d0 133f0c02 0a00002e 3400030e 3a0b3b0b  .?......4...:.;.
 02e0 49133f0c 020a0000 2f340003 0e3a0b3b  I.?...../4...:.;
 02f0 0b49133f 0c020a00 00303400 030e3a0b  .I.?.....04...:.
 0300 3b0b4913 3f0c020a 00003134 00030e3a  ;.I.?.....14...:
 0310 0b3b0b49 133f0c02 0a000032 3400030e  .;.I.?.....24...
 0320 3a0b3b0b 49133f0c 020a0000 33340003  :.;.I.?.....34..
 0330 0e3a0b3b 0b49133f 0c020a00 00343400  .:.;.I.?.....44.
 0340 030e3a0b 3b0b4913 3f0c020a 00003534  ..:.;.I.?.....54
 0350 00030e3a 0b3b0b49 133f0c02 0a000036  ...:.;.I.?.....6
 0360 3400030e 3a0b3b0b 49133f0c 020a0000  4...:.;.I.?.....
 0370 37340003 0e3a0b3b 0b49133f 0c020a00  74...:.;.I.?....
 0380 00383400 030e3a0b 3b0b4913 3f0c020a  .84...:.;.I.?...
 0390 00003934 00030e3a 0b3b0b49 133f0c02  ..94...:.;.I.?..
 03a0 0a00003a 3400030e 3a0b3b0b 49133f0c  ...:4...:.;.I.?.
 03b0 020a0000 3b340003 0e3a0b3b 0b49133f  ....;4...:.;.I.?
 03c0 0c020a00 003c3400 030e3a0b 3b0b4913  .....<4...:.;.I.
 03d0 3f0c020a 00003d34 00030e3a 0b3b0b49  ?.....=4...:.;.I
 03e0 133f0c02 0a00003e 3400030e 3a0b3b0b  .?.....>4...:.;.
 03f0 49133f0c 020a0000 3f340003 0e3a0b3b  I.?.....?4...:.;
 0400 0b49133f 0c020a00 00403400 030e3a0b  .I.?.....@4...:.
 0410 3b0b4913 3f0c020a 00004134 00030e3a  ;.I.?.....A4...:
 0420 0b3b0b49 133f0c02 0a000042 3400030e  .;.I.?.....B4...
 0430 3a0b3b0b 49133f0c 020a0000 43340003  :.;.I.?.....C4..
 0440 0e3a0b3b 0b49133f 0c020a00 00443400  .:.;.I.?.....D4.
 0450 030e3a0b 3b0b4913 3f0c020a 00004534  ..:.;.I.?.....E4
 0460 00030e3a 0b3b0b49 133f0c02 0a000046  ...:.;.I.?.....F
 0470 3400030e 3a0b3b0b 49133f0c 020a0000  4...:.;.I.?.....
 0480 47340003 0e3a0b3b 0b49133f 0c020a00  G4...:.;.I.?....
 0490 00483400 030e3a0b 3b0b4913 3f0c020a  .H4...:.;.I.?...
 04a0 00004934 00030e3a 0b3b0b49 133f0c02  ..I4...:.;.I.?..
 04b0 0a00004a 3400030e 3a0b3b0b 49133f0c  ...J4...:.;.I.?.
 04c0 020a0000 4b340003 0e3a0b3b 0b49133f  ....K4...:.;.I.?
 04d0 0c020a00 004c3400 030e3a0b 3b0b4913  .....L4...:.;.I.
 04e0 3f0c020a 00004d34 00030e3a 0b3b0b49  ?.....M4...:.;.I
 04f0 133f0c02 0a00004e 3400030e 3a0b3b0b  .?.....N4...:.;.
 0500 49133f0c 020a0000 4f340003 0e3a0b3b  I.?.....O4...:.;
 0510 0b49133f 0c020a00 00503400 030e3a0b  .I.?.....P4...:.
 0520 3b0b4913 3f0c020a 00005134 00030e3a  ;.I.?.....Q4...:
 0530 0b3b0b49 133f0c02 0a000052 3400030e  .;.I.?.....R4...
 0540 3a0b3b0b 49133f0c 020a0000 53340003  :.;.I.?.....S4..
 0550 0e3a0b3b 0b49133f 0c020a00 00543400  .:.;.I.?.....T4.
 0560 030e3a0b 3b0b4913 3f0c020a 00005534  ..:.;.I.?.....U4
 0570 00030e3a 0b3b0b49 133f0c02 0a000056  ...:.;.I.?.....V
 0580 3400030e 3a0b3b0b 49133f0c 020a0000  4...:.;.I.?.....
 0590 57340003 0e3a0b3b 0b49133f 0c020a00  W4...:.;.I.?....
 05a0 00583400 030e3a0b 3b0b4913 3f0c020a  .X4...:.;.I.?...
 05b0 00005934 00030e3a 0b3b0b49 133f0c02  ..Y4...:.;.I.?..
 05c0 0a00005a 3400030e 3a0b3b0b 49133f0c  ...Z4...:.;.I.?.
 05d0 020a0000 5b340003 0e3a0b3b 0b49133f  ....[4...:.;.I.?
 05e0 0c020a00 005c3400 030e3a0b 3b0b4913  .....\4...:.;.I.
 05f0 3f0c020a 00005d34 00030e3a 0b3b0b49  ?.....]4...:.;.I
 0600 133f0c02 0a00005e 3400030e 3a0b3b0b  .?.....^4...:.;.
 0610 49133f0c 020a0000 5f340003 0e3a0b3b  I.?....._4...:.;
 0620 0b49133f 0c020a00 00603400 030e3a0b  .I.?.....`4...:.
 0630 3b0b4913 3f0c020a 00006134 00030e3a  ;.I.?.....a4...:
 0640 0b3b0b49 133f0c02 0a000062 3400030e  .;.I.?.....b4...
 0650 3a0b3b0b 49133f0c 020a0000 63340003  :.;.I.?.....c4..
 0660 0e3a0b3b 0b49133f 0c020a00 00000111  .:.;.I.?........
 0670 01250e13 0b030e1b 0e551711 01101700  .%.......U......
 0680 00022400 0b0b3e0b 030e0000 03160003  ..$...>.........
 0690 0e3a0b3b 0b491300 00042400 0b0b3e0b  .:.;.I....$...>.
 06a0 03080000 05020103 0e0b0b3a 0b3b0b01  ...........:.;..
 06b0 13000006 0d00030e 3a0b3b0b 4913380b  ........:.;.I.8.
 06c0 320b0000 070d0003 0e3a0b3b 0b491338  2........:.;.I.8
 06d0 0b000008 2e013f19 030e3a0b 3b0b6e0e  ......?...:.;.n.
 06e0 4913320b 3c196413 00000905 00491334  I.2.<.d......I.4
 06f0 1900000a 05004913 00000b0f 000b0b49  ......I........I
 0700 1300000c 26004913 00000d2e 013f1903  ....&.I......?..
 0710 0e3a0b3b 0b491311 01120640 18974219  .:.;.I.....@..B.
 0720 01130000 0e340003 0e3a0b3b 0b491302  .....4...:.;.I..
 0730 1800000f 2e014713 6413200b 64130000  ......G.d. .d...
 0740 10050003 0e491334 19000011 0500030e  .....I.4........
 0750 3a0b3b0b 49130000 00011100 10061101  :.;.I...........
 0760 1201030e 1b0e250e 13050000 00        ......%......   
Contents of section .debug_line:
 0000 19000000 02001300 00000201 fb0e0d00  ................
 0010 01010101 00000001 00000100 00720000  .............r..
 0020 00020056 00000002 01fb0e0d 00010101  ...V............
 0030 01000000 01000001 2f757372 2f6c6f63  ......../usr/loc
 0040 616c2f43 656c6c61 722f6176 722d6763  al/Cellar/avr-gc
 0050 632f372e 332e302f 6176722f 696e636c  c/7.3.0/avr/incl
 0060 75646500 00706231 2e637070 00000000  ude..pb1.cpp....
 0070 73746469 6e742e68 00010000 00000502  stdint.h........
 0080 94000000 030c0103 04090000 01090600  ................
 0090 0001015d 00000002 00400000 000201fb  ...].....@......
 00a0 0e0d0001 01010100 00000100 00012e2e  ................
 00b0 2f2e2e2f 2e2e2f2e 2e2f6c69 62676363  /../../../libgcc
 00c0 2f636f6e 6669672f 61767200 006c6962  /config/avr..lib
 00d0 3166756e 63732e53 00010000 00000502  1funcs.S........
 00e0 9a000000 03e51101 03020902 00010902  ................
 00f0 00000101                             ....            
Contents of section .debug_frame:
 0000 10000000 ffffffff 0100027f 240c2002  ............$. .
 0010 a4010000 0c000000 00000000 94000000  ................
 0020 06000000                             ....            
Contents of section .debug_str:
 0000 6176722d 6c696263 20322e30 2e300075  avr-libc 2.0.0.u
 0010 696e7438 5f740075 696e7431 365f7400  int8_t.uint16_t.
 0020 5f5f6565 70726f6d 00414443 53524200  __eeprom.ADCSRB.
 0030 41435352 00444944 52310055 44523000  ACSR.DIDR1.UDR0.
 0040 55435352 30410055 43535230 42005543  UCSR0A.UCSR0B.UC
 0050 53523043 00554252 52300050 4f525441  SR0C.UBRR0.PORTA
 0060 00444452 41005049 4e410050 4f525442  .DDRA.PINA.PORTB
 0070 00444452 42005049 4e420050 4f525443  .DDRB.PINB.PORTC
 0080 00444452 43005049 4e430050 4f525444  .DDRC.PINC.PORTD
 0090 00444452 44005049 4e44004f 43523042  .DDRD.PIND.OCR0B
 00a0 004f4352 30410054 434e5430 00544343  .OCR0A.TCNT0.TCC
 00b0 52304200 54434352 30410054 494d534b  R0B.TCCR0A.TIMSK
 00c0 30005449 46523000 47544343 52005449  0.TIFR0.GTCCR.TI
 00d0 4d534b32 00544946 52320054 43435232  MSK2.TIFR2.TCCR2
 00e0 41005443 43523242 0054434e 5432004f  A.TCCR2B.TCNT2.O
 00f0 43523242 004f4352 32410041 53535200  CR2B.OCR2A.ASSR.
 0100 47544343 52005744 54435352 004f4344  GTCCR.WDTCSR.OCD
 0110 52004d43 55435200 4d435553 52005350  R.MCUCR.MCUSR.SP
 0120 4d435352 00454943 52410045 494d534b  MCSR.EICRA.EIMSK
 0130 00454946 52005043 4d534b33 0050434d  .EIFR.PCMSK3.PCM
 0140 534b3200 50434d53 4b310050 434d534b  SK2.PCMSK1.PCMSK
 0150 30005043 49465200 50434943 52004144  0.PCIFR.PCICR.AD
 0160 4d555800 41444300 41444353 52410041  MUX.ADC.ADCSRA.A
 0170 44435352 42004449 44523000 54494d53  DCSRB.DIDR0.TIMS
 0180 4b310054 49465231 00544343 52314100  K1.TIFR1.TCCR1A.
 0190 54434352 31420054 43435231 43005443  TCCR1B.TCCR1C.TC
 01a0 4e543100 4f435231 41004f43 52314200  NT1.OCR1A.OCR1B.
 01b0 49435231 00454541 52004545 44520045  ICR1.EEAR.EEDR.E
 01c0 45435200 53504452 30005350 53523000  ECR.SPDR0.SPSR0.
 01d0 53504352 30005457 414d5200 54574252  SPCR0.TWAMR.TWBR
 01e0 00545743 52005457 53520054 57445200  .TWCR.TWSR.TWDR.
 01f0 54574152 00554452 31005543 53523141  TWAR.UDR1.UCSR1A
 0200 00554353 52314200 55435352 31430055  .UCSR1B.UCSR1C.U
 0210 42525231 00535245 47005350 004d4355  BRR1.SREG.SP.MCU
 0220 4352004d 43555352 004f5343 43414c00  CR.MCUSR.OSCCAL.
 0230 434c4b50 5200534d 43520047 50494f52  CLKPR.SMCR.GPIOR
 0240 32004750 494f5231 00475049 4f523000  2.GPIOR1.GPIOR0.
 0250 50525230 00706231 2e637070 005f5a4e  PRR0.pb1.cpp._ZN
 0260 344e6963 65366368 616e6765 4568006e  4Nice6changeEh.n
 0270 69636500 6e65775f 696e7400 6c6f6e67  ice.new_int.long
 0280 206c6f6e 6720756e 7369676e 65642069   long unsigned i
 0290 6e740075 6e736967 6e656420 63686172  nt.unsigned char
 02a0 00746869 73004e69 6365006d 61696e00  .this.Nice.main.
 02b0 79657373 6972002f 55736572 732f7368  yessir./Users/sh
 02c0 692f446f 63756d65 6e74732f 706f6c79  i/Documents/poly
 02d0 6769742f 73657373 696f6e34 2f494e46  git/session4/INF
 02e0 31393030 2f50726f 6a657452 6f626f2f  1900/ProjetRobo/
 02f0 6e696365 2f706231 0075696e 74385f74  nice/pb1.uint8_t
 0300 00636861 6e676500 474e5520 432b2b31  .change.GNU C++1
 0310 3420372e 332e3020 2d6d6e2d 666c6173  4 7.3.0 -mn-flas
 0320 683d3120 2d6d6d63 753d6176 7235202d  h=1 -mmcu=avr5 -
 0330 67202d4f 73202d66 7061636b 2d737472  g -Os -fpack-str
 0340 75637420 2d667368 6f72742d 656e756d  uct -fshort-enum
 0350 73202d66 756e7369 676e6564 2d626974  s -funsigned-bit
 0360 6669656c 6473202d 66756e73 69676e65  fields -funsigne
 0370 642d6368 6172202d 6d6e2d66 6c617368  d-char -mn-flash
 0380 3d31202d 6d6e6f2d 736b6970 2d627567  =1 -mno-skip-bug
 0390 202d666e 6f2d7274 7469202d 666e6f2d   -fno-rtti -fno-
 03a0 656e666f 7263652d 65682d73 70656373  enforce-eh-specs
 03b0 202d666e 6f2d6578 63657074 696f6e73   -fno-exceptions
 03c0 006c6f6e 67206c6f 6e672069 6e74006f  .long long int.o
 03d0 6d677774 66002e2e 2f2e2e2f 2e2e2f2e  mgwtf.../../../.
 03e0 2e2f6c69 62676363 2f636f6e 6669672f  ./libgcc/config/
 03f0 6176722f 6c696231 66756e63 732e5300  avr/lib1funcs.S.
 0400 2f707269 76617465 2f746d70 2f617672  /private/tmp/avr
 0410 2d676363 2d323031 38303232 382d3631  -gcc-20180228-61
 0420 3035362d 31743777 7a6f6f2f 6763632d  056-1t7wzoo/gcc-
 0430 372e332e 302f6275 696c642f 6176722f  7.3.0/build/avr/
 0440 61767235 2f6c6962 67636300 474e5520  avr5/libgcc.GNU 
 0450 41532032 2e333000                    AS 2.30.        
Contents of section .debug_ranges:
 0000 94000000 9a000000 00000000 00000000  ................

Disassembly of section .text:

00000000 <__vectors>:
   0:	0c 94 3e 00 	jmp	0x7c	; 0x7c <__ctors_end>
   4:	0c 94 48 00 	jmp	0x90	; 0x90 <__bad_interrupt>
   8:	0c 94 48 00 	jmp	0x90	; 0x90 <__bad_interrupt>
   c:	0c 94 48 00 	jmp	0x90	; 0x90 <__bad_interrupt>
  10:	0c 94 48 00 	jmp	0x90	; 0x90 <__bad_interrupt>
  14:	0c 94 48 00 	jmp	0x90	; 0x90 <__bad_interrupt>
  18:	0c 94 48 00 	jmp	0x90	; 0x90 <__bad_interrupt>
  1c:	0c 94 48 00 	jmp	0x90	; 0x90 <__bad_interrupt>
  20:	0c 94 48 00 	jmp	0x90	; 0x90 <__bad_interrupt>
  24:	0c 94 48 00 	jmp	0x90	; 0x90 <__bad_interrupt>
  28:	0c 94 48 00 	jmp	0x90	; 0x90 <__bad_interrupt>
  2c:	0c 94 48 00 	jmp	0x90	; 0x90 <__bad_interrupt>
  30:	0c 94 48 00 	jmp	0x90	; 0x90 <__bad_interrupt>
  34:	0c 94 48 00 	jmp	0x90	; 0x90 <__bad_interrupt>
  38:	0c 94 48 00 	jmp	0x90	; 0x90 <__bad_interrupt>
  3c:	0c 94 48 00 	jmp	0x90	; 0x90 <__bad_interrupt>
  40:	0c 94 48 00 	jmp	0x90	; 0x90 <__bad_interrupt>
  44:	0c 94 48 00 	jmp	0x90	; 0x90 <__bad_interrupt>
  48:	0c 94 48 00 	jmp	0x90	; 0x90 <__bad_interrupt>
  4c:	0c 94 48 00 	jmp	0x90	; 0x90 <__bad_interrupt>
  50:	0c 94 48 00 	jmp	0x90	; 0x90 <__bad_interrupt>
  54:	0c 94 48 00 	jmp	0x90	; 0x90 <__bad_interrupt>
  58:	0c 94 48 00 	jmp	0x90	; 0x90 <__bad_interrupt>
  5c:	0c 94 48 00 	jmp	0x90	; 0x90 <__bad_interrupt>
  60:	0c 94 48 00 	jmp	0x90	; 0x90 <__bad_interrupt>
  64:	0c 94 48 00 	jmp	0x90	; 0x90 <__bad_interrupt>
  68:	0c 94 48 00 	jmp	0x90	; 0x90 <__bad_interrupt>
  6c:	0c 94 48 00 	jmp	0x90	; 0x90 <__bad_interrupt>
  70:	0c 94 48 00 	jmp	0x90	; 0x90 <__bad_interrupt>
  74:	0c 94 48 00 	jmp	0x90	; 0x90 <__bad_interrupt>
  78:	0c 94 48 00 	jmp	0x90	; 0x90 <__bad_interrupt>

0000007c <__ctors_end>:
  7c:	11 24       	eor	r1, r1
  7e:	1f be       	out	0x3f, r1	; 63
  80:	cf ef       	ldi	r28, 0xFF	; 255
  82:	d8 e0       	ldi	r29, 0x08	; 8
  84:	de bf       	out	0x3e, r29	; 62
  86:	cd bf       	out	0x3d, r28	; 61
  88:	0e 94 4a 00 	call	0x94	; 0x94 <main>
  8c:	0c 94 4d 00 	jmp	0x9a	; 0x9a <_exit>

00000090 <__bad_interrupt>:
  90:	0c 94 00 00 	jmp	0	; 0x0 <__vectors>

00000094 <main>:

int main(){
	Nice nice;
	nice.omgwtf = 0x01;
	nice.change(0x02);
}
  94:	90 e0       	ldi	r25, 0x00	; 0
  96:	80 e0       	ldi	r24, 0x00	; 0
  98:	08 95       	ret

0000009a <_exit>:
  9a:	f8 94       	cli

0000009c <__stop_program>:
  9c:	ff cf       	rjmp	.-2      	; 0x9c <__stop_program>

Disassembly of section .comment:

00000000 <.comment>:
   0:	47 43       	sbci	r20, 0x37	; 55
   2:	43 3a       	cpi	r20, 0xA3	; 163
   4:	20 28       	or	r2, r0
   6:	47 4e       	sbci	r20, 0xE7	; 231
   8:	55 29       	or	r21, r5
   a:	20 37       	cpi	r18, 0x70	; 112
   c:	2e 33       	cpi	r18, 0x3E	; 62
   e:	2e 30       	cpi	r18, 0x0E	; 14
	...

Disassembly of section .note.gnu.avr.deviceinfo:

00000000 <.note.gnu.avr.deviceinfo>:
   0:	04 00       	.word	0x0004	; ????
   2:	00 00       	nop
   4:	2e 00       	.word	0x002e	; ????
   6:	00 00       	nop
   8:	01 00       	.word	0x0001	; ????
   a:	00 00       	nop
   c:	41 56       	subi	r20, 0x61	; 97
   e:	52 00       	.word	0x0052	; ????
  10:	00 00       	nop
  12:	00 00       	nop
  14:	00 80       	ld	r0, Z
  16:	00 00       	nop
  18:	00 01       	movw	r0, r0
  1a:	00 00       	nop
  1c:	00 08       	sbc	r0, r0
  1e:	00 00       	nop
  20:	00 00       	nop
  22:	00 00       	nop
  24:	00 04       	cpc	r0, r0
  26:	00 00       	nop
  28:	08 00       	.word	0x0008	; ????
  2a:	00 00       	nop
  2c:	01 00       	.word	0x0001	; ????
  2e:	00 00       	nop
  30:	00 61       	ori	r16, 0x10	; 16
  32:	74 6d       	ori	r23, 0xD4	; 212
  34:	65 67       	ori	r22, 0x75	; 117
  36:	61 33       	cpi	r22, 0x31	; 49
  38:	32 34       	cpi	r19, 0x42	; 66
  3a:	70 61       	ori	r23, 0x10	; 16
  3c:	00 00       	nop
	...

Disassembly of section .debug_aranges:

00000000 <.debug_aranges>:
   0:	1c 00       	.word	0x001c	; ????
   2:	00 00       	nop
   4:	02 00       	.word	0x0002	; ????
   6:	cc 06       	cpc	r12, r28
   8:	00 00       	nop
   a:	04 00       	.word	0x0004	; ????
   c:	00 00       	nop
   e:	00 00       	nop
  10:	94 00       	.word	0x0094	; ????
  12:	00 00       	nop
  14:	06 00       	.word	0x0006	; ????
	...
  1e:	00 00       	nop
  20:	1c 00       	.word	0x001c	; ????
  22:	00 00       	nop
  24:	02 00       	.word	0x0002	; ????
  26:	d6 07       	cpc	r29, r22
  28:	00 00       	nop
  2a:	04 00       	.word	0x0004	; ????
  2c:	00 00       	nop
  2e:	00 00       	nop
  30:	9a 00       	.word	0x009a	; ????
  32:	00 00       	nop
  34:	04 00       	.word	0x0004	; ????
	...

Disassembly of section .debug_info:

00000000 <.debug_info>:
   0:	c8 06       	cpc	r12, r24
   2:	00 00       	nop
   4:	02 00       	.word	0x0002	; ????
   6:	00 00       	nop
   8:	00 00       	nop
   a:	04 01       	movw	r0, r8
	...
  14:	02 0f       	add	r16, r18
  16:	00 00       	nop
  18:	00 01       	movw	r0, r0
  1a:	08 03       	fmul	r16, r16
  1c:	17 00       	.word	0x0017	; ????
  1e:	00 00       	nop
  20:	02 07       	cpc	r16, r18
  22:	04 14       	cp	r0, r4
  24:	00 00       	nop
  26:	00 05       	cpc	r16, r0
  28:	1b 00       	.word	0x001b	; ????
  2a:	00 00       	nop
  2c:	ff 03       	fmulsu	r23, r23
  2e:	00 06       	cpc	r0, r16
  30:	20 00       	.word	0x0020	; ????
  32:	00 00       	nop
  34:	00 00       	nop
  36:	22 00       	.word	0x0022	; ????
  38:	00 00       	nop
  3a:	01 05       	cpc	r16, r1
  3c:	03 00       	.word	0x0003	; ????
  3e:	00 81       	ld	r16, Z
  40:	00 07       	cpc	r16, r16
  42:	29 00       	.word	0x0029	; ????
  44:	00 00       	nop
  46:	00 00       	nop
  48:	14 00       	.word	0x0014	; ????
  4a:	00 00       	nop
  4c:	01 05       	cpc	r16, r1
  4e:	03 7b       	andi	r16, 0xB3	; 179
  50:	00 80       	ld	r0, Z
  52:	00 08       	sbc	r0, r0
  54:	30 00       	.word	0x0030	; ????
  56:	00 00       	nop
  58:	00 00       	nop
  5a:	14 00       	.word	0x0014	; ????
  5c:	00 00       	nop
  5e:	01 05       	cpc	r16, r1
  60:	03 50       	subi	r16, 0x03	; 3
  62:	00 80       	ld	r0, Z
  64:	00 09       	sbc	r16, r0
  66:	35 00       	.word	0x0035	; ????
  68:	00 00       	nop
  6a:	00 00       	nop
  6c:	14 00       	.word	0x0014	; ????
  6e:	00 00       	nop
  70:	01 05       	cpc	r16, r1
  72:	03 7f       	andi	r16, 0xF3	; 243
  74:	00 80       	ld	r0, Z
  76:	00 0a       	sbc	r0, r16
  78:	3b 00       	.word	0x003b	; ????
  7a:	00 00       	nop
  7c:	00 00       	nop
  7e:	14 00       	.word	0x0014	; ????
  80:	00 00       	nop
  82:	01 05       	cpc	r16, r1
  84:	03 c6       	rjmp	.+3078   	; 0xc8c <__stack+0x38d>
  86:	00 80       	ld	r0, Z
  88:	00 0b       	sbc	r16, r16
  8a:	40 00       	.word	0x0040	; ????
  8c:	00 00       	nop
  8e:	00 00       	nop
  90:	14 00       	.word	0x0014	; ????
  92:	00 00       	nop
  94:	01 05       	cpc	r16, r1
  96:	03 c0       	rjmp	.+6      	; 0x9e <__data_load_end>
  98:	00 80       	ld	r0, Z
  9a:	00 0c       	add	r0, r0
  9c:	47 00       	.word	0x0047	; ????
  9e:	00 00       	nop
  a0:	00 00       	nop
  a2:	14 00       	.word	0x0014	; ????
  a4:	00 00       	nop
  a6:	01 05       	cpc	r16, r1
  a8:	03 c1       	rjmp	.+518    	; 0x2b0 <__data_load_end+0x212>
  aa:	00 80       	ld	r0, Z
  ac:	00 0d       	add	r16, r0
  ae:	4e 00       	.word	0x004e	; ????
  b0:	00 00       	nop
  b2:	00 00       	nop
  b4:	14 00       	.word	0x0014	; ????
  b6:	00 00       	nop
  b8:	01 05       	cpc	r16, r1
  ba:	03 c2       	rjmp	.+1030   	; 0x4c2 <__FUSE_REGION_LENGTH__+0xc2>
  bc:	00 80       	ld	r0, Z
  be:	00 0e       	add	r0, r16
  c0:	55 00       	.word	0x0055	; ????
  c2:	00 00       	nop
  c4:	00 00       	nop
  c6:	1b 00       	.word	0x001b	; ????
  c8:	00 00       	nop
  ca:	01 05       	cpc	r16, r1
  cc:	03 c4       	rjmp	.+2054   	; 0x8d4 <__FUSE_REGION_LENGTH__+0x4d4>
  ce:	00 80       	ld	r0, Z
  d0:	00 0f       	add	r16, r16
  d2:	5b 00       	.word	0x005b	; ????
  d4:	00 00       	nop
  d6:	00 00       	nop
  d8:	14 00       	.word	0x0014	; ????
  da:	00 00       	nop
  dc:	01 05       	cpc	r16, r1
  de:	03 22       	and	r0, r19
  e0:	00 80       	ld	r0, Z
  e2:	00 10       	cpse	r0, r0
  e4:	61 00       	.word	0x0061	; ????
  e6:	00 00       	nop
  e8:	00 00       	nop
  ea:	14 00       	.word	0x0014	; ????
  ec:	00 00       	nop
  ee:	01 05       	cpc	r16, r1
  f0:	03 21       	and	r16, r3
  f2:	00 80       	ld	r0, Z
  f4:	00 11       	cpse	r16, r0
  f6:	66 00       	.word	0x0066	; ????
  f8:	00 00       	nop
  fa:	00 00       	nop
  fc:	14 00       	.word	0x0014	; ????
  fe:	00 00       	nop
 100:	01 05       	cpc	r16, r1
 102:	03 20       	and	r0, r3
 104:	00 80       	ld	r0, Z
 106:	00 12       	cpse	r0, r16
 108:	6b 00       	.word	0x006b	; ????
 10a:	00 00       	nop
 10c:	00 00       	nop
 10e:	14 00       	.word	0x0014	; ????
 110:	00 00       	nop
 112:	01 05       	cpc	r16, r1
 114:	03 25       	eor	r16, r3
 116:	00 80       	ld	r0, Z
 118:	00 13       	cpse	r16, r16
 11a:	71 00       	.word	0x0071	; ????
 11c:	00 00       	nop
 11e:	00 00       	nop
 120:	14 00       	.word	0x0014	; ????
 122:	00 00       	nop
 124:	01 05       	cpc	r16, r1
 126:	03 24       	eor	r0, r3
 128:	00 80       	ld	r0, Z
 12a:	00 14       	cp	r0, r0
 12c:	76 00       	.word	0x0076	; ????
 12e:	00 00       	nop
 130:	00 00       	nop
 132:	14 00       	.word	0x0014	; ????
 134:	00 00       	nop
 136:	01 05       	cpc	r16, r1
 138:	03 23       	and	r16, r19
 13a:	00 80       	ld	r0, Z
 13c:	00 15       	cp	r16, r0
 13e:	7b 00       	.word	0x007b	; ????
 140:	00 00       	nop
 142:	00 00       	nop
 144:	14 00       	.word	0x0014	; ????
 146:	00 00       	nop
 148:	01 05       	cpc	r16, r1
 14a:	03 28       	or	r0, r3
 14c:	00 80       	ld	r0, Z
 14e:	00 16       	cp	r0, r16
 150:	81 00       	.word	0x0081	; ????
 152:	00 00       	nop
 154:	00 00       	nop
 156:	14 00       	.word	0x0014	; ????
 158:	00 00       	nop
 15a:	01 05       	cpc	r16, r1
 15c:	03 27       	eor	r16, r19
 15e:	00 80       	ld	r0, Z
 160:	00 17       	cp	r16, r16
 162:	86 00       	.word	0x0086	; ????
 164:	00 00       	nop
 166:	00 00       	nop
 168:	14 00       	.word	0x0014	; ????
 16a:	00 00       	nop
 16c:	01 05       	cpc	r16, r1
 16e:	03 26       	eor	r0, r19
 170:	00 80       	ld	r0, Z
 172:	00 18       	sub	r0, r0
 174:	8b 00       	.word	0x008b	; ????
 176:	00 00       	nop
 178:	00 00       	nop
 17a:	14 00       	.word	0x0014	; ????
 17c:	00 00       	nop
 17e:	01 05       	cpc	r16, r1
 180:	03 2b       	or	r16, r19
 182:	00 80       	ld	r0, Z
 184:	00 19       	sub	r16, r0
 186:	91 00       	.word	0x0091	; ????
 188:	00 00       	nop
 18a:	00 00       	nop
 18c:	14 00       	.word	0x0014	; ????
 18e:	00 00       	nop
 190:	01 05       	cpc	r16, r1
 192:	03 2a       	or	r0, r19
 194:	00 80       	ld	r0, Z
 196:	00 1a       	sub	r0, r16
 198:	96 00       	.word	0x0096	; ????
 19a:	00 00       	nop
 19c:	00 00       	nop
 19e:	14 00       	.word	0x0014	; ????
 1a0:	00 00       	nop
 1a2:	01 05       	cpc	r16, r1
 1a4:	03 29       	or	r16, r3
 1a6:	00 80       	ld	r0, Z
 1a8:	00 1b       	sub	r16, r16
 1aa:	9b 00       	.word	0x009b	; ????
 1ac:	00 00       	nop
 1ae:	00 00       	nop
 1b0:	14 00       	.word	0x0014	; ????
 1b2:	00 00       	nop
 1b4:	01 05       	cpc	r16, r1
 1b6:	03 48       	sbci	r16, 0x83	; 131
 1b8:	00 80       	ld	r0, Z
 1ba:	00 1c       	adc	r0, r0
 1bc:	a1 00       	.word	0x00a1	; ????
 1be:	00 00       	nop
 1c0:	00 00       	nop
 1c2:	14 00       	.word	0x0014	; ????
 1c4:	00 00       	nop
 1c6:	01 05       	cpc	r16, r1
 1c8:	03 47       	sbci	r16, 0x73	; 115
 1ca:	00 80       	ld	r0, Z
 1cc:	00 1d       	adc	r16, r0
 1ce:	a7 00       	.word	0x00a7	; ????
 1d0:	00 00       	nop
 1d2:	00 00       	nop
 1d4:	14 00       	.word	0x0014	; ????
 1d6:	00 00       	nop
 1d8:	01 05       	cpc	r16, r1
 1da:	03 46       	sbci	r16, 0x63	; 99
 1dc:	00 80       	ld	r0, Z
 1de:	00 1e       	adc	r0, r16
 1e0:	ad 00       	.word	0x00ad	; ????
 1e2:	00 00       	nop
 1e4:	00 00       	nop
 1e6:	14 00       	.word	0x0014	; ????
 1e8:	00 00       	nop
 1ea:	01 05       	cpc	r16, r1
 1ec:	03 45       	sbci	r16, 0x53	; 83
 1ee:	00 80       	ld	r0, Z
 1f0:	00 1f       	adc	r16, r16
 1f2:	b4 00       	.word	0x00b4	; ????
 1f4:	00 00       	nop
 1f6:	00 00       	nop
 1f8:	14 00       	.word	0x0014	; ????
 1fa:	00 00       	nop
 1fc:	01 05       	cpc	r16, r1
 1fe:	03 44       	sbci	r16, 0x43	; 67
 200:	00 80       	ld	r0, Z
 202:	00 20       	and	r0, r0
 204:	bb 00       	.word	0x00bb	; ????
 206:	00 00       	nop
 208:	00 00       	nop
 20a:	14 00       	.word	0x0014	; ????
 20c:	00 00       	nop
 20e:	01 05       	cpc	r16, r1
 210:	03 6e       	ori	r16, 0xE3	; 227
 212:	00 80       	ld	r0, Z
 214:	00 21       	and	r16, r0
 216:	c2 00       	.word	0x00c2	; ????
 218:	00 00       	nop
 21a:	00 00       	nop
 21c:	14 00       	.word	0x0014	; ????
 21e:	00 00       	nop
 220:	01 05       	cpc	r16, r1
 222:	03 35       	cpi	r16, 0x53	; 83
 224:	00 80       	ld	r0, Z
 226:	00 22       	and	r0, r16
 228:	c8 00       	.word	0x00c8	; ????
 22a:	00 00       	nop
 22c:	00 00       	nop
 22e:	14 00       	.word	0x0014	; ????
 230:	00 00       	nop
 232:	01 05       	cpc	r16, r1
 234:	03 43       	sbci	r16, 0x33	; 51
 236:	00 80       	ld	r0, Z
 238:	00 23       	and	r16, r16
 23a:	ce 00       	.word	0x00ce	; ????
 23c:	00 00       	nop
 23e:	00 00       	nop
 240:	14 00       	.word	0x0014	; ????
 242:	00 00       	nop
 244:	01 05       	cpc	r16, r1
 246:	03 70       	andi	r16, 0x03	; 3
 248:	00 80       	ld	r0, Z
 24a:	00 24       	eor	r0, r0
 24c:	d5 00       	.word	0x00d5	; ????
 24e:	00 00       	nop
 250:	00 00       	nop
 252:	14 00       	.word	0x0014	; ????
 254:	00 00       	nop
 256:	01 05       	cpc	r16, r1
 258:	03 37       	cpi	r16, 0x73	; 115
 25a:	00 80       	ld	r0, Z
 25c:	00 25       	eor	r16, r0
 25e:	db 00       	.word	0x00db	; ????
 260:	00 00       	nop
 262:	00 00       	nop
 264:	14 00       	.word	0x0014	; ????
 266:	00 00       	nop
 268:	01 05       	cpc	r16, r1
 26a:	03 b0       	in	r0, 0x03	; 3
 26c:	00 80       	ld	r0, Z
 26e:	00 26       	eor	r0, r16
 270:	e2 00       	.word	0x00e2	; ????
 272:	00 00       	nop
 274:	00 00       	nop
 276:	14 00       	.word	0x0014	; ????
 278:	00 00       	nop
 27a:	01 05       	cpc	r16, r1
 27c:	03 b1       	in	r16, 0x03	; 3
 27e:	00 80       	ld	r0, Z
 280:	00 27       	eor	r16, r16
 282:	e9 00       	.word	0x00e9	; ????
 284:	00 00       	nop
 286:	00 00       	nop
 288:	14 00       	.word	0x0014	; ????
 28a:	00 00       	nop
 28c:	01 05       	cpc	r16, r1
 28e:	03 b2       	in	r0, 0x13	; 19
 290:	00 80       	ld	r0, Z
 292:	00 28       	or	r0, r0
 294:	ef 00       	.word	0x00ef	; ????
 296:	00 00       	nop
 298:	00 00       	nop
 29a:	14 00       	.word	0x0014	; ????
 29c:	00 00       	nop
 29e:	01 05       	cpc	r16, r1
 2a0:	03 b4       	in	r0, 0x23	; 35
 2a2:	00 80       	ld	r0, Z
 2a4:	00 29       	or	r16, r0
 2a6:	f5 00       	.word	0x00f5	; ????
 2a8:	00 00       	nop
 2aa:	00 00       	nop
 2ac:	14 00       	.word	0x0014	; ????
 2ae:	00 00       	nop
 2b0:	01 05       	cpc	r16, r1
 2b2:	03 b3       	in	r16, 0x13	; 19
 2b4:	00 80       	ld	r0, Z
 2b6:	00 2a       	or	r0, r16
 2b8:	fb 00       	.word	0x00fb	; ????
 2ba:	00 00       	nop
 2bc:	00 00       	nop
 2be:	14 00       	.word	0x0014	; ????
 2c0:	00 00       	nop
 2c2:	01 05       	cpc	r16, r1
 2c4:	03 b6       	in	r0, 0x33	; 51
 2c6:	00 80       	ld	r0, Z
 2c8:	00 2b       	or	r16, r16
 2ca:	00 01       	movw	r0, r0
 2cc:	00 00       	nop
 2ce:	00 00       	nop
 2d0:	14 00       	.word	0x0014	; ????
 2d2:	00 00       	nop
 2d4:	01 05       	cpc	r16, r1
 2d6:	03 43       	sbci	r16, 0x33	; 51
 2d8:	00 80       	ld	r0, Z
 2da:	00 2c       	mov	r0, r0
 2dc:	06 01       	movw	r0, r12
 2de:	00 00       	nop
 2e0:	00 00       	nop
 2e2:	14 00       	.word	0x0014	; ????
 2e4:	00 00       	nop
 2e6:	01 05       	cpc	r16, r1
 2e8:	03 60       	ori	r16, 0x03	; 3
 2ea:	00 80       	ld	r0, Z
 2ec:	00 2d       	mov	r16, r0
 2ee:	0d 01       	movw	r0, r26
 2f0:	00 00       	nop
 2f2:	00 00       	nop
 2f4:	14 00       	.word	0x0014	; ????
 2f6:	00 00       	nop
 2f8:	01 05       	cpc	r16, r1
 2fa:	03 51       	subi	r16, 0x13	; 19
 2fc:	00 80       	ld	r0, Z
 2fe:	00 2e       	mov	r0, r16
 300:	12 01       	movw	r2, r4
 302:	00 00       	nop
 304:	00 00       	nop
 306:	14 00       	.word	0x0014	; ????
 308:	00 00       	nop
 30a:	01 05       	cpc	r16, r1
 30c:	03 55       	subi	r16, 0x53	; 83
 30e:	00 80       	ld	r0, Z
 310:	00 2f       	mov	r16, r16
 312:	18 01       	movw	r2, r16
 314:	00 00       	nop
 316:	00 00       	nop
 318:	14 00       	.word	0x0014	; ????
 31a:	00 00       	nop
 31c:	01 05       	cpc	r16, r1
 31e:	03 54       	subi	r16, 0x43	; 67
 320:	00 80       	ld	r0, Z
 322:	00 30       	cpi	r16, 0x00	; 0
 324:	1e 01       	movw	r2, r28
 326:	00 00       	nop
 328:	00 00       	nop
 32a:	14 00       	.word	0x0014	; ????
 32c:	00 00       	nop
 32e:	01 05       	cpc	r16, r1
 330:	03 57       	subi	r16, 0x73	; 115
 332:	00 80       	ld	r0, Z
 334:	00 31       	cpi	r16, 0x10	; 16
 336:	25 01       	movw	r4, r10
 338:	00 00       	nop
 33a:	00 00       	nop
 33c:	14 00       	.word	0x0014	; ????
 33e:	00 00       	nop
 340:	01 05       	cpc	r16, r1
 342:	03 69       	ori	r16, 0x93	; 147
 344:	00 80       	ld	r0, Z
 346:	00 32       	cpi	r16, 0x20	; 32
 348:	2b 01       	movw	r4, r22
 34a:	00 00       	nop
 34c:	00 00       	nop
 34e:	14 00       	.word	0x0014	; ????
 350:	00 00       	nop
 352:	01 05       	cpc	r16, r1
 354:	03 3d       	cpi	r16, 0xD3	; 211
 356:	00 80       	ld	r0, Z
 358:	00 33       	cpi	r16, 0x30	; 48
 35a:	31 01       	movw	r6, r2
 35c:	00 00       	nop
 35e:	00 00       	nop
 360:	14 00       	.word	0x0014	; ????
 362:	00 00       	nop
 364:	01 05       	cpc	r16, r1
 366:	03 3c       	cpi	r16, 0xC3	; 195
 368:	00 80       	ld	r0, Z
 36a:	00 34       	cpi	r16, 0x40	; 64
 36c:	36 01       	movw	r6, r12
 36e:	00 00       	nop
 370:	00 00       	nop
 372:	14 00       	.word	0x0014	; ????
 374:	00 00       	nop
 376:	01 05       	cpc	r16, r1
 378:	03 73       	andi	r16, 0x33	; 51
 37a:	00 80       	ld	r0, Z
 37c:	00 35       	cpi	r16, 0x50	; 80
 37e:	3d 01       	movw	r6, r26
 380:	00 00       	nop
 382:	00 00       	nop
 384:	14 00       	.word	0x0014	; ????
 386:	00 00       	nop
 388:	01 05       	cpc	r16, r1
 38a:	03 6d       	ori	r16, 0xD3	; 211
 38c:	00 80       	ld	r0, Z
 38e:	00 36       	cpi	r16, 0x60	; 96
 390:	44 01       	movw	r8, r8
 392:	00 00       	nop
 394:	00 00       	nop
 396:	14 00       	.word	0x0014	; ????
 398:	00 00       	nop
 39a:	01 05       	cpc	r16, r1
 39c:	03 6c       	ori	r16, 0xC3	; 195
 39e:	00 80       	ld	r0, Z
 3a0:	00 37       	cpi	r16, 0x70	; 112
 3a2:	4b 01       	movw	r8, r22
 3a4:	00 00       	nop
 3a6:	00 00       	nop
 3a8:	14 00       	.word	0x0014	; ????
 3aa:	00 00       	nop
 3ac:	01 05       	cpc	r16, r1
 3ae:	03 6b       	ori	r16, 0xB3	; 179
 3b0:	00 80       	ld	r0, Z
 3b2:	00 38       	cpi	r16, 0x80	; 128
 3b4:	52 01       	movw	r10, r4
 3b6:	00 00       	nop
 3b8:	00 00       	nop
 3ba:	14 00       	.word	0x0014	; ????
 3bc:	00 00       	nop
 3be:	01 05       	cpc	r16, r1
 3c0:	03 3b       	cpi	r16, 0xB3	; 179
 3c2:	00 80       	ld	r0, Z
 3c4:	00 39       	cpi	r16, 0x90	; 144
 3c6:	58 01       	movw	r10, r16
 3c8:	00 00       	nop
 3ca:	00 00       	nop
 3cc:	14 00       	.word	0x0014	; ????
 3ce:	00 00       	nop
 3d0:	01 05       	cpc	r16, r1
 3d2:	03 68       	ori	r16, 0x83	; 131
 3d4:	00 80       	ld	r0, Z
 3d6:	00 3a       	cpi	r16, 0xA0	; 160
 3d8:	5e 01       	movw	r10, r28
 3da:	00 00       	nop
 3dc:	00 00       	nop
 3de:	14 00       	.word	0x0014	; ????
 3e0:	00 00       	nop
 3e2:	01 05       	cpc	r16, r1
 3e4:	03 7c       	andi	r16, 0xC3	; 195
 3e6:	00 80       	ld	r0, Z
 3e8:	00 3b       	cpi	r16, 0xB0	; 176
 3ea:	64 01       	movw	r12, r8
 3ec:	00 00       	nop
 3ee:	00 00       	nop
 3f0:	1b 00       	.word	0x001b	; ????
 3f2:	00 00       	nop
 3f4:	01 05       	cpc	r16, r1
 3f6:	03 78       	andi	r16, 0x83	; 131
 3f8:	00 80       	ld	r0, Z
 3fa:	00 3c       	cpi	r16, 0xC0	; 192
 3fc:	68 01       	movw	r12, r16
 3fe:	00 00       	nop
 400:	00 00       	nop
 402:	14 00       	.word	0x0014	; ????
 404:	00 00       	nop
 406:	01 05       	cpc	r16, r1
 408:	03 7a       	andi	r16, 0xA3	; 163
 40a:	00 80       	ld	r0, Z
 40c:	00 3d       	cpi	r16, 0xD0	; 208
 40e:	6f 01       	movw	r12, r30
 410:	00 00       	nop
 412:	00 00       	nop
 414:	14 00       	.word	0x0014	; ????
 416:	00 00       	nop
 418:	01 05       	cpc	r16, r1
 41a:	03 7b       	andi	r16, 0xB3	; 179
 41c:	00 80       	ld	r0, Z
 41e:	00 3e       	cpi	r16, 0xE0	; 224
 420:	76 01       	movw	r14, r12
 422:	00 00       	nop
 424:	00 00       	nop
 426:	14 00       	.word	0x0014	; ????
 428:	00 00       	nop
 42a:	01 05       	cpc	r16, r1
 42c:	03 7e       	andi	r16, 0xE3	; 227
 42e:	00 80       	ld	r0, Z
 430:	00 3f       	cpi	r16, 0xF0	; 240
 432:	7c 01       	movw	r14, r24
 434:	00 00       	nop
 436:	00 00       	nop
 438:	14 00       	.word	0x0014	; ????
 43a:	00 00       	nop
 43c:	01 05       	cpc	r16, r1
 43e:	03 6f       	ori	r16, 0xF3	; 243
 440:	00 80       	ld	r0, Z
 442:	00 40       	sbci	r16, 0x00	; 0
 444:	83 01       	movw	r16, r6
 446:	00 00       	nop
 448:	00 00       	nop
 44a:	14 00       	.word	0x0014	; ????
 44c:	00 00       	nop
 44e:	01 05       	cpc	r16, r1
 450:	03 36       	cpi	r16, 0x63	; 99
 452:	00 80       	ld	r0, Z
 454:	00 41       	sbci	r16, 0x10	; 16
 456:	89 01       	movw	r16, r18
 458:	00 00       	nop
 45a:	00 00       	nop
 45c:	14 00       	.word	0x0014	; ????
 45e:	00 00       	nop
 460:	01 05       	cpc	r16, r1
 462:	03 80       	ldd	r0, Z+3	; 0x03
 464:	00 80       	ld	r0, Z
 466:	00 42       	sbci	r16, 0x20	; 32
 468:	90 01       	movw	r18, r0
 46a:	00 00       	nop
 46c:	00 00       	nop
 46e:	14 00       	.word	0x0014	; ????
 470:	00 00       	nop
 472:	01 05       	cpc	r16, r1
 474:	03 81       	ldd	r16, Z+3	; 0x03
 476:	00 80       	ld	r0, Z
 478:	00 43       	sbci	r16, 0x30	; 48
 47a:	97 01       	movw	r18, r14
 47c:	00 00       	nop
 47e:	00 00       	nop
 480:	14 00       	.word	0x0014	; ????
 482:	00 00       	nop
 484:	01 05       	cpc	r16, r1
 486:	03 82       	std	Z+3, r0	; 0x03
 488:	00 80       	ld	r0, Z
 48a:	00 44       	sbci	r16, 0x40	; 64
 48c:	9e 01       	movw	r18, r28
 48e:	00 00       	nop
 490:	00 00       	nop
 492:	1b 00       	.word	0x001b	; ????
 494:	00 00       	nop
 496:	01 05       	cpc	r16, r1
 498:	03 84       	ldd	r0, Z+11	; 0x0b
 49a:	00 80       	ld	r0, Z
 49c:	00 45       	sbci	r16, 0x50	; 80
 49e:	a4 01       	movw	r20, r8
 4a0:	00 00       	nop
 4a2:	00 00       	nop
 4a4:	1b 00       	.word	0x001b	; ????
 4a6:	00 00       	nop
 4a8:	01 05       	cpc	r16, r1
 4aa:	03 88       	ldd	r0, Z+19	; 0x13
 4ac:	00 80       	ld	r0, Z
 4ae:	00 46       	sbci	r16, 0x60	; 96
 4b0:	aa 01       	movw	r20, r20
 4b2:	00 00       	nop
 4b4:	00 00       	nop
 4b6:	1b 00       	.word	0x001b	; ????
 4b8:	00 00       	nop
 4ba:	01 05       	cpc	r16, r1
 4bc:	03 8a       	std	Z+19, r0	; 0x13
 4be:	00 80       	ld	r0, Z
 4c0:	00 47       	sbci	r16, 0x70	; 112
 4c2:	b0 01       	movw	r22, r0
 4c4:	00 00       	nop
 4c6:	00 00       	nop
 4c8:	1b 00       	.word	0x001b	; ????
 4ca:	00 00       	nop
 4cc:	01 05       	cpc	r16, r1
 4ce:	03 86       	std	Z+11, r0	; 0x0b
 4d0:	00 80       	ld	r0, Z
 4d2:	00 48       	sbci	r16, 0x80	; 128
 4d4:	b5 01       	movw	r22, r10
 4d6:	00 00       	nop
 4d8:	00 00       	nop
 4da:	1b 00       	.word	0x001b	; ????
 4dc:	00 00       	nop
 4de:	01 05       	cpc	r16, r1
 4e0:	03 41       	sbci	r16, 0x13	; 19
 4e2:	00 80       	ld	r0, Z
 4e4:	00 49       	sbci	r16, 0x90	; 144
 4e6:	ba 01       	movw	r22, r20
 4e8:	00 00       	nop
 4ea:	00 00       	nop
 4ec:	14 00       	.word	0x0014	; ????
 4ee:	00 00       	nop
 4f0:	01 05       	cpc	r16, r1
 4f2:	03 40       	sbci	r16, 0x03	; 3
 4f4:	00 80       	ld	r0, Z
 4f6:	00 4a       	sbci	r16, 0xA0	; 160
 4f8:	bf 01       	movw	r22, r30
 4fa:	00 00       	nop
 4fc:	00 00       	nop
 4fe:	14 00       	.word	0x0014	; ????
 500:	00 00       	nop
 502:	01 05       	cpc	r16, r1
 504:	03 3f       	cpi	r16, 0xF3	; 243
 506:	00 80       	ld	r0, Z
 508:	00 4b       	sbci	r16, 0xB0	; 176
 50a:	c4 01       	movw	r24, r8
 50c:	00 00       	nop
 50e:	00 00       	nop
 510:	14 00       	.word	0x0014	; ????
 512:	00 00       	nop
 514:	01 05       	cpc	r16, r1
 516:	03 4e       	sbci	r16, 0xE3	; 227
 518:	00 80       	ld	r0, Z
 51a:	00 4c       	sbci	r16, 0xC0	; 192
 51c:	ca 01       	movw	r24, r20
 51e:	00 00       	nop
 520:	00 00       	nop
 522:	14 00       	.word	0x0014	; ????
 524:	00 00       	nop
 526:	01 05       	cpc	r16, r1
 528:	03 4d       	sbci	r16, 0xD3	; 211
 52a:	00 80       	ld	r0, Z
 52c:	00 4d       	sbci	r16, 0xD0	; 208
 52e:	d0 01       	movw	r26, r0
 530:	00 00       	nop
 532:	00 00       	nop
 534:	14 00       	.word	0x0014	; ????
 536:	00 00       	nop
 538:	01 05       	cpc	r16, r1
 53a:	03 4c       	sbci	r16, 0xC3	; 195
 53c:	00 80       	ld	r0, Z
 53e:	00 4e       	sbci	r16, 0xE0	; 224
 540:	d6 01       	movw	r26, r12
 542:	00 00       	nop
 544:	00 00       	nop
 546:	14 00       	.word	0x0014	; ????
 548:	00 00       	nop
 54a:	01 05       	cpc	r16, r1
 54c:	03 bd       	out	0x23, r16	; 35
 54e:	00 80       	ld	r0, Z
 550:	00 4f       	sbci	r16, 0xF0	; 240
 552:	dc 01       	movw	r26, r24
 554:	00 00       	nop
 556:	00 00       	nop
 558:	14 00       	.word	0x0014	; ????
 55a:	00 00       	nop
 55c:	01 05       	cpc	r16, r1
 55e:	03 b8       	out	0x03, r0	; 3
 560:	00 80       	ld	r0, Z
 562:	00 50       	subi	r16, 0x00	; 0
 564:	e1 01       	movw	r28, r2
 566:	00 00       	nop
 568:	00 00       	nop
 56a:	14 00       	.word	0x0014	; ????
 56c:	00 00       	nop
 56e:	01 05       	cpc	r16, r1
 570:	03 bc       	out	0x23, r0	; 35
 572:	00 80       	ld	r0, Z
 574:	00 51       	subi	r16, 0x10	; 16
 576:	e6 01       	movw	r28, r12
 578:	00 00       	nop
 57a:	00 00       	nop
 57c:	14 00       	.word	0x0014	; ????
 57e:	00 00       	nop
 580:	01 05       	cpc	r16, r1
 582:	03 b9       	out	0x03, r16	; 3
 584:	00 80       	ld	r0, Z
 586:	00 52       	subi	r16, 0x20	; 32
 588:	eb 01       	movw	r28, r22
 58a:	00 00       	nop
 58c:	00 00       	nop
 58e:	14 00       	.word	0x0014	; ????
 590:	00 00       	nop
 592:	01 05       	cpc	r16, r1
 594:	03 bb       	out	0x13, r16	; 19
 596:	00 80       	ld	r0, Z
 598:	00 53       	subi	r16, 0x30	; 48
 59a:	f0 01       	movw	r30, r0
 59c:	00 00       	nop
 59e:	00 00       	nop
 5a0:	14 00       	.word	0x0014	; ????
 5a2:	00 00       	nop
 5a4:	01 05       	cpc	r16, r1
 5a6:	03 ba       	out	0x13, r0	; 19
 5a8:	00 80       	ld	r0, Z
 5aa:	00 54       	subi	r16, 0x40	; 64
 5ac:	f5 01       	movw	r30, r10
 5ae:	00 00       	nop
 5b0:	00 00       	nop
 5b2:	14 00       	.word	0x0014	; ????
 5b4:	00 00       	nop
 5b6:	01 05       	cpc	r16, r1
 5b8:	03 ce       	rjmp	.-1018   	; 0x1c0 <__data_load_end+0x122>
 5ba:	00 80       	ld	r0, Z
 5bc:	00 55       	subi	r16, 0x50	; 80
 5be:	fa 01       	movw	r30, r20
 5c0:	00 00       	nop
 5c2:	00 00       	nop
 5c4:	14 00       	.word	0x0014	; ????
 5c6:	00 00       	nop
 5c8:	01 05       	cpc	r16, r1
 5ca:	03 c8       	rjmp	.-4090   	; 0xfffff5d2 <__eeprom_end+0xff7ef5d2>
 5cc:	00 80       	ld	r0, Z
 5ce:	00 56       	subi	r16, 0x60	; 96
 5d0:	01 02       	muls	r16, r17
 5d2:	00 00       	nop
 5d4:	00 00       	nop
 5d6:	14 00       	.word	0x0014	; ????
 5d8:	00 00       	nop
 5da:	01 05       	cpc	r16, r1
 5dc:	03 c9       	rjmp	.-3578   	; 0xfffff7e4 <__eeprom_end+0xff7ef7e4>
 5de:	00 80       	ld	r0, Z
 5e0:	00 57       	subi	r16, 0x70	; 112
 5e2:	08 02       	muls	r16, r24
 5e4:	00 00       	nop
 5e6:	00 00       	nop
 5e8:	14 00       	.word	0x0014	; ????
 5ea:	00 00       	nop
 5ec:	01 05       	cpc	r16, r1
 5ee:	03 ca       	rjmp	.-3066   	; 0xfffff9f6 <__eeprom_end+0xff7ef9f6>
 5f0:	00 80       	ld	r0, Z
 5f2:	00 58       	subi	r16, 0x80	; 128
 5f4:	0f 02       	muls	r16, r31
 5f6:	00 00       	nop
 5f8:	00 00       	nop
 5fa:	1b 00       	.word	0x001b	; ????
 5fc:	00 00       	nop
 5fe:	01 05       	cpc	r16, r1
 600:	03 cc       	rjmp	.-2042   	; 0xfffffe08 <__eeprom_end+0xff7efe08>
 602:	00 80       	ld	r0, Z
 604:	00 59       	subi	r16, 0x90	; 144
 606:	15 02       	muls	r17, r21
 608:	00 00       	nop
 60a:	00 00       	nop
 60c:	14 00       	.word	0x0014	; ????
 60e:	00 00       	nop
 610:	01 05       	cpc	r16, r1
 612:	03 5f       	subi	r16, 0xF3	; 243
 614:	00 80       	ld	r0, Z
 616:	00 5a       	subi	r16, 0xA0	; 160
 618:	1a 02       	muls	r17, r26
 61a:	00 00       	nop
 61c:	00 00       	nop
 61e:	1b 00       	.word	0x001b	; ????
 620:	00 00       	nop
 622:	01 05       	cpc	r16, r1
 624:	03 5d       	subi	r16, 0xD3	; 211
 626:	00 80       	ld	r0, Z
 628:	00 5b       	subi	r16, 0xB0	; 176
 62a:	1d 02       	muls	r17, r29
 62c:	00 00       	nop
 62e:	00 00       	nop
 630:	14 00       	.word	0x0014	; ????
 632:	00 00       	nop
 634:	01 05       	cpc	r16, r1
 636:	03 55       	subi	r16, 0x53	; 83
 638:	00 80       	ld	r0, Z
 63a:	00 5c       	subi	r16, 0xC0	; 192
 63c:	23 02       	muls	r18, r19
 63e:	00 00       	nop
 640:	00 00       	nop
 642:	14 00       	.word	0x0014	; ????
 644:	00 00       	nop
 646:	01 05       	cpc	r16, r1
 648:	03 54       	subi	r16, 0x43	; 67
 64a:	00 80       	ld	r0, Z
 64c:	00 5d       	subi	r16, 0xD0	; 208
 64e:	29 02       	muls	r18, r25
 650:	00 00       	nop
 652:	00 00       	nop
 654:	14 00       	.word	0x0014	; ????
 656:	00 00       	nop
 658:	01 05       	cpc	r16, r1
 65a:	03 66       	ori	r16, 0x63	; 99
 65c:	00 80       	ld	r0, Z
 65e:	00 5e       	subi	r16, 0xE0	; 224
 660:	30 02       	muls	r19, r16
 662:	00 00       	nop
 664:	00 00       	nop
 666:	14 00       	.word	0x0014	; ????
 668:	00 00       	nop
 66a:	01 05       	cpc	r16, r1
 66c:	03 61       	ori	r16, 0x13	; 19
 66e:	00 80       	ld	r0, Z
 670:	00 5f       	subi	r16, 0xF0	; 240
 672:	36 02       	muls	r19, r22
 674:	00 00       	nop
 676:	00 00       	nop
 678:	14 00       	.word	0x0014	; ????
 67a:	00 00       	nop
 67c:	01 05       	cpc	r16, r1
 67e:	03 53       	subi	r16, 0x33	; 51
 680:	00 80       	ld	r0, Z
 682:	00 60       	ori	r16, 0x00	; 0
 684:	3b 02       	muls	r19, r27
 686:	00 00       	nop
 688:	00 00       	nop
 68a:	14 00       	.word	0x0014	; ????
 68c:	00 00       	nop
 68e:	01 05       	cpc	r16, r1
 690:	03 4b       	sbci	r16, 0xB3	; 179
 692:	00 80       	ld	r0, Z
 694:	00 61       	ori	r16, 0x10	; 16
 696:	42 02       	muls	r20, r18
 698:	00 00       	nop
 69a:	00 00       	nop
 69c:	14 00       	.word	0x0014	; ????
 69e:	00 00       	nop
 6a0:	01 05       	cpc	r16, r1
 6a2:	03 4a       	sbci	r16, 0xA3	; 163
 6a4:	00 80       	ld	r0, Z
 6a6:	00 62       	ori	r16, 0x20	; 32
 6a8:	49 02       	muls	r20, r25
 6aa:	00 00       	nop
 6ac:	00 00       	nop
 6ae:	14 00       	.word	0x0014	; ????
 6b0:	00 00       	nop
 6b2:	01 05       	cpc	r16, r1
 6b4:	03 3e       	cpi	r16, 0xE3	; 227
 6b6:	00 80       	ld	r0, Z
 6b8:	00 63       	ori	r16, 0x30	; 48
 6ba:	50 02       	muls	r21, r16
 6bc:	00 00       	nop
 6be:	00 00       	nop
 6c0:	14 00       	.word	0x0014	; ????
 6c2:	00 00       	nop
 6c4:	01 05       	cpc	r16, r1
 6c6:	03 64       	ori	r16, 0x43	; 67
 6c8:	00 80       	ld	r0, Z
 6ca:	00 00       	nop
 6cc:	06 01       	movw	r0, r12
 6ce:	00 00       	nop
 6d0:	04 00       	.word	0x0004	; ????
 6d2:	6e 06       	cpc	r6, r30
 6d4:	00 00       	nop
 6d6:	04 01       	movw	r0, r8
 6d8:	08 03       	fmul	r16, r16
 6da:	00 00       	nop
 6dc:	04 55       	subi	r16, 0x54	; 84
 6de:	02 00       	.word	0x0002	; ????
 6e0:	00 b7       	in	r16, 0x30	; 48
 6e2:	02 00       	.word	0x0002	; ????
	...
 6ec:	00 1d       	adc	r16, r0
 6ee:	00 00       	nop
 6f0:	00 02       	muls	r16, r16
 6f2:	01 06       	cpc	r0, r17
 6f4:	95 02       	muls	r25, r21
 6f6:	00 00       	nop
 6f8:	03 f9       	bld	r16, 3
 6fa:	02 00       	.word	0x0002	; ????
 6fc:	00 02       	muls	r16, r16
 6fe:	7e 37       	cpi	r23, 0x7E	; 126
 700:	00 00       	nop
 702:	00 02       	muls	r16, r16
 704:	01 08       	sbc	r0, r1
 706:	93 02       	muls	r25, r19
 708:	00 00       	nop
 70a:	04 02       	muls	r16, r20
 70c:	05 69       	ori	r16, 0x95	; 149
 70e:	6e 74       	andi	r22, 0x4E	; 78
 710:	00 02       	muls	r16, r16
 712:	02 07       	cpc	r16, r18
 714:	86 02       	muls	r24, r22
 716:	00 00       	nop
 718:	02 04       	cpc	r0, r2
 71a:	05 c6       	rjmp	.+3082   	; 0x1326 <__stack+0xa27>
 71c:	03 00       	.word	0x0003	; ????
 71e:	00 02       	muls	r16, r16
 720:	04 07       	cpc	r16, r20
 722:	81 02       	muls	r24, r17
 724:	00 00       	nop
 726:	02 08       	sbc	r0, r2
 728:	05 c1       	rjmp	.+522    	; 0x934 <__stack+0x35>
 72a:	03 00       	.word	0x0003	; ????
 72c:	00 02       	muls	r16, r16
 72e:	08 07       	cpc	r16, r24
 730:	7c 02       	muls	r23, r28
 732:	00 00       	nop
 734:	05 a6       	std	Z+45, r0	; 0x2d
 736:	02 00       	.word	0x0002	; ????
 738:	00 02       	muls	r16, r16
 73a:	01 03       	mulsu	r16, r17
 73c:	ad 00       	.word	0x00ad	; ????
 73e:	00 00       	nop
 740:	06 cf       	rjmp	.-500    	; 0x54e <__FUSE_REGION_LENGTH__+0x14e>
 742:	03 00       	.word	0x0003	; ????
 744:	00 01       	movw	r0, r0
 746:	05 2c       	mov	r0, r5
 748:	00 00       	nop
 74a:	00 00       	nop
 74c:	01 07       	cpc	r16, r17
 74e:	b0 02       	muls	r27, r16
 750:	00 00       	nop
 752:	01 0a       	sbc	r0, r17
 754:	2c 00       	.word	0x002c	; ????
 756:	00 00       	nop
 758:	01 08       	sbc	r0, r1
 75a:	01 03       	mulsu	r16, r17
 75c:	00 00       	nop
 75e:	01 06       	cpc	r0, r17
 760:	5d 02       	muls	r21, r29
 762:	00 00       	nop
 764:	2c 00       	.word	0x002c	; ????
 766:	00 00       	nop
 768:	01 a1       	ldd	r16, Z+33	; 0x21
 76a:	00 00       	nop
 76c:	00 09       	sbc	r16, r0
 76e:	ad 00       	.word	0x00ad	; ????
 770:	00 00       	nop
 772:	0a 2c       	mov	r0, r10
 774:	00 00       	nop
 776:	00 00       	nop
 778:	00 0b       	sbc	r16, r16
 77a:	02 68       	ori	r16, 0x82	; 130
 77c:	00 00       	nop
 77e:	00 0c       	add	r0, r0
 780:	ad 00       	.word	0x00ad	; ????
 782:	00 00       	nop
 784:	0d ab       	std	Y+53, r16	; 0x35
 786:	02 00       	.word	0x0002	; ????
 788:	00 01       	movw	r0, r0
 78a:	0d 3e       	cpi	r16, 0xED	; 237
 78c:	00 00       	nop
 78e:	00 94       	com	r0
 790:	00 00       	nop
 792:	00 06       	cpc	r0, r16
 794:	00 00       	nop
 796:	00 01       	movw	r0, r0
 798:	9c e6       	ldi	r25, 0x6C	; 108
 79a:	00 00       	nop
 79c:	00 0e       	add	r0, r16
 79e:	6f 02       	muls	r22, r31
 7a0:	00 00       	nop
 7a2:	01 0e       	add	r0, r17
 7a4:	68 00       	.word	0x0068	; ????
 7a6:	00 00       	nop
 7a8:	08 31       	cpi	r16, 0x18	; 24
 7aa:	9f 93       	push	r25
 7ac:	01 32       	cpi	r16, 0x21	; 33
 7ae:	9f 93       	push	r25
 7b0:	01 00       	.word	0x0001	; ????
 7b2:	0f 8d       	ldd	r16, Y+31	; 0x1f
 7b4:	00 00       	nop
 7b6:	00 f4       	brcc	.+0      	; 0x7b8 <__FUSE_REGION_LENGTH__+0x3b8>
 7b8:	00 00       	nop
 7ba:	00 03       	mulsu	r16, r16
 7bc:	f4 00       	.word	0x00f4	; ????
 7be:	00 00       	nop
 7c0:	10 a1       	ldd	r17, Z+32	; 0x20
 7c2:	02 00       	.word	0x0002	; ????
 7c4:	00 b3       	in	r16, 0x10	; 16
 7c6:	00 00       	nop
 7c8:	00 11       	cpse	r16, r0
 7ca:	74 02       	muls	r23, r20
 7cc:	00 00       	nop
 7ce:	01 06       	cpc	r0, r17
 7d0:	2c 00       	.word	0x002c	; ????
 7d2:	00 00       	nop
 7d4:	00 00       	nop
 7d6:	22 00       	.word	0x0022	; ????
 7d8:	00 00       	nop
 7da:	02 00       	.word	0x0002	; ????
 7dc:	59 07       	cpc	r21, r25
 7de:	00 00       	nop
 7e0:	04 01       	movw	r0, r8
 7e2:	93 00       	.word	0x0093	; ????
 7e4:	00 00       	nop
 7e6:	9a 00       	.word	0x009a	; ????
 7e8:	00 00       	nop
 7ea:	9e 00       	.word	0x009e	; ????
 7ec:	00 00       	nop
 7ee:	d6 03       	fmuls	r21, r22
 7f0:	00 00       	nop
 7f2:	00 04       	cpc	r0, r0
 7f4:	00 00       	nop
 7f6:	4c 04       	cpc	r4, r12
 7f8:	00 00       	nop
 7fa:	01 80       	ldd	r0, Z+1	; 0x01

Disassembly of section .debug_abbrev:

00000000 <.debug_abbrev>:
   0:	01 11       	cpse	r16, r1
   2:	01 25       	eor	r16, r1
   4:	0e 10       	cpse	r0, r14
   6:	06 00       	.word	0x0006	; ????
   8:	00 02       	muls	r16, r16
   a:	24 00       	.word	0x0024	; ????
   c:	03 0e       	add	r0, r19
   e:	0b 0b       	sbc	r16, r27
  10:	3e 0b       	sbc	r19, r30
  12:	00 00       	nop
  14:	03 24       	eor	r0, r3
  16:	00 03       	mulsu	r16, r16
  18:	0e 0b       	sbc	r16, r30
  1a:	0b 3e       	cpi	r16, 0xEB	; 235
  1c:	0b 00       	.word	0x000b	; ????
  1e:	00 04       	cpc	r0, r0
  20:	01 01       	movw	r0, r2
  22:	49 13       	cpse	r20, r25
  24:	00 00       	nop
  26:	05 21       	and	r16, r5
  28:	00 49       	sbci	r16, 0x90	; 144
  2a:	13 2f       	mov	r17, r19
  2c:	05 00       	.word	0x0005	; ????
  2e:	00 06       	cpc	r0, r16
  30:	34 00       	.word	0x0034	; ????
  32:	03 0e       	add	r0, r19
  34:	3a 0b       	sbc	r19, r26
  36:	3b 0b       	sbc	r19, r27
  38:	49 13       	cpse	r20, r25
  3a:	3f 0c       	add	r3, r15
  3c:	02 0a       	sbc	r0, r18
  3e:	00 00       	nop
  40:	07 34       	cpi	r16, 0x47	; 71
  42:	00 03       	mulsu	r16, r16
  44:	0e 3a       	cpi	r16, 0xAE	; 174
  46:	0b 3b       	cpi	r16, 0xBB	; 187
  48:	0b 49       	sbci	r16, 0x9B	; 155
  4a:	13 3f       	cpi	r17, 0xF3	; 243
  4c:	0c 02       	muls	r16, r28
  4e:	0a 00       	.word	0x000a	; ????
  50:	00 08       	sbc	r0, r0
  52:	34 00       	.word	0x0034	; ????
  54:	03 0e       	add	r0, r19
  56:	3a 0b       	sbc	r19, r26
  58:	3b 0b       	sbc	r19, r27
  5a:	49 13       	cpse	r20, r25
  5c:	3f 0c       	add	r3, r15
  5e:	02 0a       	sbc	r0, r18
  60:	00 00       	nop
  62:	09 34       	cpi	r16, 0x49	; 73
  64:	00 03       	mulsu	r16, r16
  66:	0e 3a       	cpi	r16, 0xAE	; 174
  68:	0b 3b       	cpi	r16, 0xBB	; 187
  6a:	0b 49       	sbci	r16, 0x9B	; 155
  6c:	13 3f       	cpi	r17, 0xF3	; 243
  6e:	0c 02       	muls	r16, r28
  70:	0a 00       	.word	0x000a	; ????
  72:	00 0a       	sbc	r0, r16
  74:	34 00       	.word	0x0034	; ????
  76:	03 0e       	add	r0, r19
  78:	3a 0b       	sbc	r19, r26
  7a:	3b 0b       	sbc	r19, r27
  7c:	49 13       	cpse	r20, r25
  7e:	3f 0c       	add	r3, r15
  80:	02 0a       	sbc	r0, r18
  82:	00 00       	nop
  84:	0b 34       	cpi	r16, 0x4B	; 75
  86:	00 03       	mulsu	r16, r16
  88:	0e 3a       	cpi	r16, 0xAE	; 174
  8a:	0b 3b       	cpi	r16, 0xBB	; 187
  8c:	0b 49       	sbci	r16, 0x9B	; 155
  8e:	13 3f       	cpi	r17, 0xF3	; 243
  90:	0c 02       	muls	r16, r28
  92:	0a 00       	.word	0x000a	; ????
  94:	00 0c       	add	r0, r0
  96:	34 00       	.word	0x0034	; ????
  98:	03 0e       	add	r0, r19
  9a:	3a 0b       	sbc	r19, r26
  9c:	3b 0b       	sbc	r19, r27
  9e:	49 13       	cpse	r20, r25
  a0:	3f 0c       	add	r3, r15
  a2:	02 0a       	sbc	r0, r18
  a4:	00 00       	nop
  a6:	0d 34       	cpi	r16, 0x4D	; 77
  a8:	00 03       	mulsu	r16, r16
  aa:	0e 3a       	cpi	r16, 0xAE	; 174
  ac:	0b 3b       	cpi	r16, 0xBB	; 187
  ae:	0b 49       	sbci	r16, 0x9B	; 155
  b0:	13 3f       	cpi	r17, 0xF3	; 243
  b2:	0c 02       	muls	r16, r28
  b4:	0a 00       	.word	0x000a	; ????
  b6:	00 0e       	add	r0, r16
  b8:	34 00       	.word	0x0034	; ????
  ba:	03 0e       	add	r0, r19
  bc:	3a 0b       	sbc	r19, r26
  be:	3b 0b       	sbc	r19, r27
  c0:	49 13       	cpse	r20, r25
  c2:	3f 0c       	add	r3, r15
  c4:	02 0a       	sbc	r0, r18
  c6:	00 00       	nop
  c8:	0f 34       	cpi	r16, 0x4F	; 79
  ca:	00 03       	mulsu	r16, r16
  cc:	0e 3a       	cpi	r16, 0xAE	; 174
  ce:	0b 3b       	cpi	r16, 0xBB	; 187
  d0:	0b 49       	sbci	r16, 0x9B	; 155
  d2:	13 3f       	cpi	r17, 0xF3	; 243
  d4:	0c 02       	muls	r16, r28
  d6:	0a 00       	.word	0x000a	; ????
  d8:	00 10       	cpse	r0, r0
  da:	34 00       	.word	0x0034	; ????
  dc:	03 0e       	add	r0, r19
  de:	3a 0b       	sbc	r19, r26
  e0:	3b 0b       	sbc	r19, r27
  e2:	49 13       	cpse	r20, r25
  e4:	3f 0c       	add	r3, r15
  e6:	02 0a       	sbc	r0, r18
  e8:	00 00       	nop
  ea:	11 34       	cpi	r17, 0x41	; 65
  ec:	00 03       	mulsu	r16, r16
  ee:	0e 3a       	cpi	r16, 0xAE	; 174
  f0:	0b 3b       	cpi	r16, 0xBB	; 187
  f2:	0b 49       	sbci	r16, 0x9B	; 155
  f4:	13 3f       	cpi	r17, 0xF3	; 243
  f6:	0c 02       	muls	r16, r28
  f8:	0a 00       	.word	0x000a	; ????
  fa:	00 12       	cpse	r0, r16
  fc:	34 00       	.word	0x0034	; ????
  fe:	03 0e       	add	r0, r19
 100:	3a 0b       	sbc	r19, r26
 102:	3b 0b       	sbc	r19, r27
 104:	49 13       	cpse	r20, r25
 106:	3f 0c       	add	r3, r15
 108:	02 0a       	sbc	r0, r18
 10a:	00 00       	nop
 10c:	13 34       	cpi	r17, 0x43	; 67
 10e:	00 03       	mulsu	r16, r16
 110:	0e 3a       	cpi	r16, 0xAE	; 174
 112:	0b 3b       	cpi	r16, 0xBB	; 187
 114:	0b 49       	sbci	r16, 0x9B	; 155
 116:	13 3f       	cpi	r17, 0xF3	; 243
 118:	0c 02       	muls	r16, r28
 11a:	0a 00       	.word	0x000a	; ????
 11c:	00 14       	cp	r0, r0
 11e:	34 00       	.word	0x0034	; ????
 120:	03 0e       	add	r0, r19
 122:	3a 0b       	sbc	r19, r26
 124:	3b 0b       	sbc	r19, r27
 126:	49 13       	cpse	r20, r25
 128:	3f 0c       	add	r3, r15
 12a:	02 0a       	sbc	r0, r18
 12c:	00 00       	nop
 12e:	15 34       	cpi	r17, 0x45	; 69
 130:	00 03       	mulsu	r16, r16
 132:	0e 3a       	cpi	r16, 0xAE	; 174
 134:	0b 3b       	cpi	r16, 0xBB	; 187
 136:	0b 49       	sbci	r16, 0x9B	; 155
 138:	13 3f       	cpi	r17, 0xF3	; 243
 13a:	0c 02       	muls	r16, r28
 13c:	0a 00       	.word	0x000a	; ????
 13e:	00 16       	cp	r0, r16
 140:	34 00       	.word	0x0034	; ????
 142:	03 0e       	add	r0, r19
 144:	3a 0b       	sbc	r19, r26
 146:	3b 0b       	sbc	r19, r27
 148:	49 13       	cpse	r20, r25
 14a:	3f 0c       	add	r3, r15
 14c:	02 0a       	sbc	r0, r18
 14e:	00 00       	nop
 150:	17 34       	cpi	r17, 0x47	; 71
 152:	00 03       	mulsu	r16, r16
 154:	0e 3a       	cpi	r16, 0xAE	; 174
 156:	0b 3b       	cpi	r16, 0xBB	; 187
 158:	0b 49       	sbci	r16, 0x9B	; 155
 15a:	13 3f       	cpi	r17, 0xF3	; 243
 15c:	0c 02       	muls	r16, r28
 15e:	0a 00       	.word	0x000a	; ????
 160:	00 18       	sub	r0, r0
 162:	34 00       	.word	0x0034	; ????
 164:	03 0e       	add	r0, r19
 166:	3a 0b       	sbc	r19, r26
 168:	3b 0b       	sbc	r19, r27
 16a:	49 13       	cpse	r20, r25
 16c:	3f 0c       	add	r3, r15
 16e:	02 0a       	sbc	r0, r18
 170:	00 00       	nop
 172:	19 34       	cpi	r17, 0x49	; 73
 174:	00 03       	mulsu	r16, r16
 176:	0e 3a       	cpi	r16, 0xAE	; 174
 178:	0b 3b       	cpi	r16, 0xBB	; 187
 17a:	0b 49       	sbci	r16, 0x9B	; 155
 17c:	13 3f       	cpi	r17, 0xF3	; 243
 17e:	0c 02       	muls	r16, r28
 180:	0a 00       	.word	0x000a	; ????
 182:	00 1a       	sub	r0, r16
 184:	34 00       	.word	0x0034	; ????
 186:	03 0e       	add	r0, r19
 188:	3a 0b       	sbc	r19, r26
 18a:	3b 0b       	sbc	r19, r27
 18c:	49 13       	cpse	r20, r25
 18e:	3f 0c       	add	r3, r15
 190:	02 0a       	sbc	r0, r18
 192:	00 00       	nop
 194:	1b 34       	cpi	r17, 0x4B	; 75
 196:	00 03       	mulsu	r16, r16
 198:	0e 3a       	cpi	r16, 0xAE	; 174
 19a:	0b 3b       	cpi	r16, 0xBB	; 187
 19c:	0b 49       	sbci	r16, 0x9B	; 155
 19e:	13 3f       	cpi	r17, 0xF3	; 243
 1a0:	0c 02       	muls	r16, r28
 1a2:	0a 00       	.word	0x000a	; ????
 1a4:	00 1c       	adc	r0, r0
 1a6:	34 00       	.word	0x0034	; ????
 1a8:	03 0e       	add	r0, r19
 1aa:	3a 0b       	sbc	r19, r26
 1ac:	3b 0b       	sbc	r19, r27
 1ae:	49 13       	cpse	r20, r25
 1b0:	3f 0c       	add	r3, r15
 1b2:	02 0a       	sbc	r0, r18
 1b4:	00 00       	nop
 1b6:	1d 34       	cpi	r17, 0x4D	; 77
 1b8:	00 03       	mulsu	r16, r16
 1ba:	0e 3a       	cpi	r16, 0xAE	; 174
 1bc:	0b 3b       	cpi	r16, 0xBB	; 187
 1be:	0b 49       	sbci	r16, 0x9B	; 155
 1c0:	13 3f       	cpi	r17, 0xF3	; 243
 1c2:	0c 02       	muls	r16, r28
 1c4:	0a 00       	.word	0x000a	; ????
 1c6:	00 1e       	adc	r0, r16
 1c8:	34 00       	.word	0x0034	; ????
 1ca:	03 0e       	add	r0, r19
 1cc:	3a 0b       	sbc	r19, r26
 1ce:	3b 0b       	sbc	r19, r27
 1d0:	49 13       	cpse	r20, r25
 1d2:	3f 0c       	add	r3, r15
 1d4:	02 0a       	sbc	r0, r18
 1d6:	00 00       	nop
 1d8:	1f 34       	cpi	r17, 0x4F	; 79
 1da:	00 03       	mulsu	r16, r16
 1dc:	0e 3a       	cpi	r16, 0xAE	; 174
 1de:	0b 3b       	cpi	r16, 0xBB	; 187
 1e0:	0b 49       	sbci	r16, 0x9B	; 155
 1e2:	13 3f       	cpi	r17, 0xF3	; 243
 1e4:	0c 02       	muls	r16, r28
 1e6:	0a 00       	.word	0x000a	; ????
 1e8:	00 20       	and	r0, r0
 1ea:	34 00       	.word	0x0034	; ????
 1ec:	03 0e       	add	r0, r19
 1ee:	3a 0b       	sbc	r19, r26
 1f0:	3b 0b       	sbc	r19, r27
 1f2:	49 13       	cpse	r20, r25
 1f4:	3f 0c       	add	r3, r15
 1f6:	02 0a       	sbc	r0, r18
 1f8:	00 00       	nop
 1fa:	21 34       	cpi	r18, 0x41	; 65
 1fc:	00 03       	mulsu	r16, r16
 1fe:	0e 3a       	cpi	r16, 0xAE	; 174
 200:	0b 3b       	cpi	r16, 0xBB	; 187
 202:	0b 49       	sbci	r16, 0x9B	; 155
 204:	13 3f       	cpi	r17, 0xF3	; 243
 206:	0c 02       	muls	r16, r28
 208:	0a 00       	.word	0x000a	; ????
 20a:	00 22       	and	r0, r16
 20c:	34 00       	.word	0x0034	; ????
 20e:	03 0e       	add	r0, r19
 210:	3a 0b       	sbc	r19, r26
 212:	3b 0b       	sbc	r19, r27
 214:	49 13       	cpse	r20, r25
 216:	3f 0c       	add	r3, r15
 218:	02 0a       	sbc	r0, r18
 21a:	00 00       	nop
 21c:	23 34       	cpi	r18, 0x43	; 67
 21e:	00 03       	mulsu	r16, r16
 220:	0e 3a       	cpi	r16, 0xAE	; 174
 222:	0b 3b       	cpi	r16, 0xBB	; 187
 224:	0b 49       	sbci	r16, 0x9B	; 155
 226:	13 3f       	cpi	r17, 0xF3	; 243
 228:	0c 02       	muls	r16, r28
 22a:	0a 00       	.word	0x000a	; ????
 22c:	00 24       	eor	r0, r0
 22e:	34 00       	.word	0x0034	; ????
 230:	03 0e       	add	r0, r19
 232:	3a 0b       	sbc	r19, r26
 234:	3b 0b       	sbc	r19, r27
 236:	49 13       	cpse	r20, r25
 238:	3f 0c       	add	r3, r15
 23a:	02 0a       	sbc	r0, r18
 23c:	00 00       	nop
 23e:	25 34       	cpi	r18, 0x45	; 69
 240:	00 03       	mulsu	r16, r16
 242:	0e 3a       	cpi	r16, 0xAE	; 174
 244:	0b 3b       	cpi	r16, 0xBB	; 187
 246:	0b 49       	sbci	r16, 0x9B	; 155
 248:	13 3f       	cpi	r17, 0xF3	; 243
 24a:	0c 02       	muls	r16, r28
 24c:	0a 00       	.word	0x000a	; ????
 24e:	00 26       	eor	r0, r16
 250:	34 00       	.word	0x0034	; ????
 252:	03 0e       	add	r0, r19
 254:	3a 0b       	sbc	r19, r26
 256:	3b 0b       	sbc	r19, r27
 258:	49 13       	cpse	r20, r25
 25a:	3f 0c       	add	r3, r15
 25c:	02 0a       	sbc	r0, r18
 25e:	00 00       	nop
 260:	27 34       	cpi	r18, 0x47	; 71
 262:	00 03       	mulsu	r16, r16
 264:	0e 3a       	cpi	r16, 0xAE	; 174
 266:	0b 3b       	cpi	r16, 0xBB	; 187
 268:	0b 49       	sbci	r16, 0x9B	; 155
 26a:	13 3f       	cpi	r17, 0xF3	; 243
 26c:	0c 02       	muls	r16, r28
 26e:	0a 00       	.word	0x000a	; ????
 270:	00 28       	or	r0, r0
 272:	34 00       	.word	0x0034	; ????
 274:	03 0e       	add	r0, r19
 276:	3a 0b       	sbc	r19, r26
 278:	3b 0b       	sbc	r19, r27
 27a:	49 13       	cpse	r20, r25
 27c:	3f 0c       	add	r3, r15
 27e:	02 0a       	sbc	r0, r18
 280:	00 00       	nop
 282:	29 34       	cpi	r18, 0x49	; 73
 284:	00 03       	mulsu	r16, r16
 286:	0e 3a       	cpi	r16, 0xAE	; 174
 288:	0b 3b       	cpi	r16, 0xBB	; 187
 28a:	0b 49       	sbci	r16, 0x9B	; 155
 28c:	13 3f       	cpi	r17, 0xF3	; 243
 28e:	0c 02       	muls	r16, r28
 290:	0a 00       	.word	0x000a	; ????
 292:	00 2a       	or	r0, r16
 294:	34 00       	.word	0x0034	; ????
 296:	03 0e       	add	r0, r19
 298:	3a 0b       	sbc	r19, r26
 29a:	3b 0b       	sbc	r19, r27
 29c:	49 13       	cpse	r20, r25
 29e:	3f 0c       	add	r3, r15
 2a0:	02 0a       	sbc	r0, r18
 2a2:	00 00       	nop
 2a4:	2b 34       	cpi	r18, 0x4B	; 75
 2a6:	00 03       	mulsu	r16, r16
 2a8:	0e 3a       	cpi	r16, 0xAE	; 174
 2aa:	0b 3b       	cpi	r16, 0xBB	; 187
 2ac:	0b 49       	sbci	r16, 0x9B	; 155
 2ae:	13 3f       	cpi	r17, 0xF3	; 243
 2b0:	0c 02       	muls	r16, r28
 2b2:	0a 00       	.word	0x000a	; ????
 2b4:	00 2c       	mov	r0, r0
 2b6:	34 00       	.word	0x0034	; ????
 2b8:	03 0e       	add	r0, r19
 2ba:	3a 0b       	sbc	r19, r26
 2bc:	3b 0b       	sbc	r19, r27
 2be:	49 13       	cpse	r20, r25
 2c0:	3f 0c       	add	r3, r15
 2c2:	02 0a       	sbc	r0, r18
 2c4:	00 00       	nop
 2c6:	2d 34       	cpi	r18, 0x4D	; 77
 2c8:	00 03       	mulsu	r16, r16
 2ca:	0e 3a       	cpi	r16, 0xAE	; 174
 2cc:	0b 3b       	cpi	r16, 0xBB	; 187
 2ce:	0b 49       	sbci	r16, 0x9B	; 155
 2d0:	13 3f       	cpi	r17, 0xF3	; 243
 2d2:	0c 02       	muls	r16, r28
 2d4:	0a 00       	.word	0x000a	; ????
 2d6:	00 2e       	mov	r0, r16
 2d8:	34 00       	.word	0x0034	; ????
 2da:	03 0e       	add	r0, r19
 2dc:	3a 0b       	sbc	r19, r26
 2de:	3b 0b       	sbc	r19, r27
 2e0:	49 13       	cpse	r20, r25
 2e2:	3f 0c       	add	r3, r15
 2e4:	02 0a       	sbc	r0, r18
 2e6:	00 00       	nop
 2e8:	2f 34       	cpi	r18, 0x4F	; 79
 2ea:	00 03       	mulsu	r16, r16
 2ec:	0e 3a       	cpi	r16, 0xAE	; 174
 2ee:	0b 3b       	cpi	r16, 0xBB	; 187
 2f0:	0b 49       	sbci	r16, 0x9B	; 155
 2f2:	13 3f       	cpi	r17, 0xF3	; 243
 2f4:	0c 02       	muls	r16, r28
 2f6:	0a 00       	.word	0x000a	; ????
 2f8:	00 30       	cpi	r16, 0x00	; 0
 2fa:	34 00       	.word	0x0034	; ????
 2fc:	03 0e       	add	r0, r19
 2fe:	3a 0b       	sbc	r19, r26
 300:	3b 0b       	sbc	r19, r27
 302:	49 13       	cpse	r20, r25
 304:	3f 0c       	add	r3, r15
 306:	02 0a       	sbc	r0, r18
 308:	00 00       	nop
 30a:	31 34       	cpi	r19, 0x41	; 65
 30c:	00 03       	mulsu	r16, r16
 30e:	0e 3a       	cpi	r16, 0xAE	; 174
 310:	0b 3b       	cpi	r16, 0xBB	; 187
 312:	0b 49       	sbci	r16, 0x9B	; 155
 314:	13 3f       	cpi	r17, 0xF3	; 243
 316:	0c 02       	muls	r16, r28
 318:	0a 00       	.word	0x000a	; ????
 31a:	00 32       	cpi	r16, 0x20	; 32
 31c:	34 00       	.word	0x0034	; ????
 31e:	03 0e       	add	r0, r19
 320:	3a 0b       	sbc	r19, r26
 322:	3b 0b       	sbc	r19, r27
 324:	49 13       	cpse	r20, r25
 326:	3f 0c       	add	r3, r15
 328:	02 0a       	sbc	r0, r18
 32a:	00 00       	nop
 32c:	33 34       	cpi	r19, 0x43	; 67
 32e:	00 03       	mulsu	r16, r16
 330:	0e 3a       	cpi	r16, 0xAE	; 174
 332:	0b 3b       	cpi	r16, 0xBB	; 187
 334:	0b 49       	sbci	r16, 0x9B	; 155
 336:	13 3f       	cpi	r17, 0xF3	; 243
 338:	0c 02       	muls	r16, r28
 33a:	0a 00       	.word	0x000a	; ????
 33c:	00 34       	cpi	r16, 0x40	; 64
 33e:	34 00       	.word	0x0034	; ????
 340:	03 0e       	add	r0, r19
 342:	3a 0b       	sbc	r19, r26
 344:	3b 0b       	sbc	r19, r27
 346:	49 13       	cpse	r20, r25
 348:	3f 0c       	add	r3, r15
 34a:	02 0a       	sbc	r0, r18
 34c:	00 00       	nop
 34e:	35 34       	cpi	r19, 0x45	; 69
 350:	00 03       	mulsu	r16, r16
 352:	0e 3a       	cpi	r16, 0xAE	; 174
 354:	0b 3b       	cpi	r16, 0xBB	; 187
 356:	0b 49       	sbci	r16, 0x9B	; 155
 358:	13 3f       	cpi	r17, 0xF3	; 243
 35a:	0c 02       	muls	r16, r28
 35c:	0a 00       	.word	0x000a	; ????
 35e:	00 36       	cpi	r16, 0x60	; 96
 360:	34 00       	.word	0x0034	; ????
 362:	03 0e       	add	r0, r19
 364:	3a 0b       	sbc	r19, r26
 366:	3b 0b       	sbc	r19, r27
 368:	49 13       	cpse	r20, r25
 36a:	3f 0c       	add	r3, r15
 36c:	02 0a       	sbc	r0, r18
 36e:	00 00       	nop
 370:	37 34       	cpi	r19, 0x47	; 71
 372:	00 03       	mulsu	r16, r16
 374:	0e 3a       	cpi	r16, 0xAE	; 174
 376:	0b 3b       	cpi	r16, 0xBB	; 187
 378:	0b 49       	sbci	r16, 0x9B	; 155
 37a:	13 3f       	cpi	r17, 0xF3	; 243
 37c:	0c 02       	muls	r16, r28
 37e:	0a 00       	.word	0x000a	; ????
 380:	00 38       	cpi	r16, 0x80	; 128
 382:	34 00       	.word	0x0034	; ????
 384:	03 0e       	add	r0, r19
 386:	3a 0b       	sbc	r19, r26
 388:	3b 0b       	sbc	r19, r27
 38a:	49 13       	cpse	r20, r25
 38c:	3f 0c       	add	r3, r15
 38e:	02 0a       	sbc	r0, r18
 390:	00 00       	nop
 392:	39 34       	cpi	r19, 0x49	; 73
 394:	00 03       	mulsu	r16, r16
 396:	0e 3a       	cpi	r16, 0xAE	; 174
 398:	0b 3b       	cpi	r16, 0xBB	; 187
 39a:	0b 49       	sbci	r16, 0x9B	; 155
 39c:	13 3f       	cpi	r17, 0xF3	; 243
 39e:	0c 02       	muls	r16, r28
 3a0:	0a 00       	.word	0x000a	; ????
 3a2:	00 3a       	cpi	r16, 0xA0	; 160
 3a4:	34 00       	.word	0x0034	; ????
 3a6:	03 0e       	add	r0, r19
 3a8:	3a 0b       	sbc	r19, r26
 3aa:	3b 0b       	sbc	r19, r27
 3ac:	49 13       	cpse	r20, r25
 3ae:	3f 0c       	add	r3, r15
 3b0:	02 0a       	sbc	r0, r18
 3b2:	00 00       	nop
 3b4:	3b 34       	cpi	r19, 0x4B	; 75
 3b6:	00 03       	mulsu	r16, r16
 3b8:	0e 3a       	cpi	r16, 0xAE	; 174
 3ba:	0b 3b       	cpi	r16, 0xBB	; 187
 3bc:	0b 49       	sbci	r16, 0x9B	; 155
 3be:	13 3f       	cpi	r17, 0xF3	; 243
 3c0:	0c 02       	muls	r16, r28
 3c2:	0a 00       	.word	0x000a	; ????
 3c4:	00 3c       	cpi	r16, 0xC0	; 192
 3c6:	34 00       	.word	0x0034	; ????
 3c8:	03 0e       	add	r0, r19
 3ca:	3a 0b       	sbc	r19, r26
 3cc:	3b 0b       	sbc	r19, r27
 3ce:	49 13       	cpse	r20, r25
 3d0:	3f 0c       	add	r3, r15
 3d2:	02 0a       	sbc	r0, r18
 3d4:	00 00       	nop
 3d6:	3d 34       	cpi	r19, 0x4D	; 77
 3d8:	00 03       	mulsu	r16, r16
 3da:	0e 3a       	cpi	r16, 0xAE	; 174
 3dc:	0b 3b       	cpi	r16, 0xBB	; 187
 3de:	0b 49       	sbci	r16, 0x9B	; 155
 3e0:	13 3f       	cpi	r17, 0xF3	; 243
 3e2:	0c 02       	muls	r16, r28
 3e4:	0a 00       	.word	0x000a	; ????
 3e6:	00 3e       	cpi	r16, 0xE0	; 224
 3e8:	34 00       	.word	0x0034	; ????
 3ea:	03 0e       	add	r0, r19
 3ec:	3a 0b       	sbc	r19, r26
 3ee:	3b 0b       	sbc	r19, r27
 3f0:	49 13       	cpse	r20, r25
 3f2:	3f 0c       	add	r3, r15
 3f4:	02 0a       	sbc	r0, r18
 3f6:	00 00       	nop
 3f8:	3f 34       	cpi	r19, 0x4F	; 79
 3fa:	00 03       	mulsu	r16, r16
 3fc:	0e 3a       	cpi	r16, 0xAE	; 174
 3fe:	0b 3b       	cpi	r16, 0xBB	; 187
 400:	0b 49       	sbci	r16, 0x9B	; 155
 402:	13 3f       	cpi	r17, 0xF3	; 243
 404:	0c 02       	muls	r16, r28
 406:	0a 00       	.word	0x000a	; ????
 408:	00 40       	sbci	r16, 0x00	; 0
 40a:	34 00       	.word	0x0034	; ????
 40c:	03 0e       	add	r0, r19
 40e:	3a 0b       	sbc	r19, r26
 410:	3b 0b       	sbc	r19, r27
 412:	49 13       	cpse	r20, r25
 414:	3f 0c       	add	r3, r15
 416:	02 0a       	sbc	r0, r18
 418:	00 00       	nop
 41a:	41 34       	cpi	r20, 0x41	; 65
 41c:	00 03       	mulsu	r16, r16
 41e:	0e 3a       	cpi	r16, 0xAE	; 174
 420:	0b 3b       	cpi	r16, 0xBB	; 187
 422:	0b 49       	sbci	r16, 0x9B	; 155
 424:	13 3f       	cpi	r17, 0xF3	; 243
 426:	0c 02       	muls	r16, r28
 428:	0a 00       	.word	0x000a	; ????
 42a:	00 42       	sbci	r16, 0x20	; 32
 42c:	34 00       	.word	0x0034	; ????
 42e:	03 0e       	add	r0, r19
 430:	3a 0b       	sbc	r19, r26
 432:	3b 0b       	sbc	r19, r27
 434:	49 13       	cpse	r20, r25
 436:	3f 0c       	add	r3, r15
 438:	02 0a       	sbc	r0, r18
 43a:	00 00       	nop
 43c:	43 34       	cpi	r20, 0x43	; 67
 43e:	00 03       	mulsu	r16, r16
 440:	0e 3a       	cpi	r16, 0xAE	; 174
 442:	0b 3b       	cpi	r16, 0xBB	; 187
 444:	0b 49       	sbci	r16, 0x9B	; 155
 446:	13 3f       	cpi	r17, 0xF3	; 243
 448:	0c 02       	muls	r16, r28
 44a:	0a 00       	.word	0x000a	; ????
 44c:	00 44       	sbci	r16, 0x40	; 64
 44e:	34 00       	.word	0x0034	; ????
 450:	03 0e       	add	r0, r19
 452:	3a 0b       	sbc	r19, r26
 454:	3b 0b       	sbc	r19, r27
 456:	49 13       	cpse	r20, r25
 458:	3f 0c       	add	r3, r15
 45a:	02 0a       	sbc	r0, r18
 45c:	00 00       	nop
 45e:	45 34       	cpi	r20, 0x45	; 69
 460:	00 03       	mulsu	r16, r16
 462:	0e 3a       	cpi	r16, 0xAE	; 174
 464:	0b 3b       	cpi	r16, 0xBB	; 187
 466:	0b 49       	sbci	r16, 0x9B	; 155
 468:	13 3f       	cpi	r17, 0xF3	; 243
 46a:	0c 02       	muls	r16, r28
 46c:	0a 00       	.word	0x000a	; ????
 46e:	00 46       	sbci	r16, 0x60	; 96
 470:	34 00       	.word	0x0034	; ????
 472:	03 0e       	add	r0, r19
 474:	3a 0b       	sbc	r19, r26
 476:	3b 0b       	sbc	r19, r27
 478:	49 13       	cpse	r20, r25
 47a:	3f 0c       	add	r3, r15
 47c:	02 0a       	sbc	r0, r18
 47e:	00 00       	nop
 480:	47 34       	cpi	r20, 0x47	; 71
 482:	00 03       	mulsu	r16, r16
 484:	0e 3a       	cpi	r16, 0xAE	; 174
 486:	0b 3b       	cpi	r16, 0xBB	; 187
 488:	0b 49       	sbci	r16, 0x9B	; 155
 48a:	13 3f       	cpi	r17, 0xF3	; 243
 48c:	0c 02       	muls	r16, r28
 48e:	0a 00       	.word	0x000a	; ????
 490:	00 48       	sbci	r16, 0x80	; 128
 492:	34 00       	.word	0x0034	; ????
 494:	03 0e       	add	r0, r19
 496:	3a 0b       	sbc	r19, r26
 498:	3b 0b       	sbc	r19, r27
 49a:	49 13       	cpse	r20, r25
 49c:	3f 0c       	add	r3, r15
 49e:	02 0a       	sbc	r0, r18
 4a0:	00 00       	nop
 4a2:	49 34       	cpi	r20, 0x49	; 73
 4a4:	00 03       	mulsu	r16, r16
 4a6:	0e 3a       	cpi	r16, 0xAE	; 174
 4a8:	0b 3b       	cpi	r16, 0xBB	; 187
 4aa:	0b 49       	sbci	r16, 0x9B	; 155
 4ac:	13 3f       	cpi	r17, 0xF3	; 243
 4ae:	0c 02       	muls	r16, r28
 4b0:	0a 00       	.word	0x000a	; ????
 4b2:	00 4a       	sbci	r16, 0xA0	; 160
 4b4:	34 00       	.word	0x0034	; ????
 4b6:	03 0e       	add	r0, r19
 4b8:	3a 0b       	sbc	r19, r26
 4ba:	3b 0b       	sbc	r19, r27
 4bc:	49 13       	cpse	r20, r25
 4be:	3f 0c       	add	r3, r15
 4c0:	02 0a       	sbc	r0, r18
 4c2:	00 00       	nop
 4c4:	4b 34       	cpi	r20, 0x4B	; 75
 4c6:	00 03       	mulsu	r16, r16
 4c8:	0e 3a       	cpi	r16, 0xAE	; 174
 4ca:	0b 3b       	cpi	r16, 0xBB	; 187
 4cc:	0b 49       	sbci	r16, 0x9B	; 155
 4ce:	13 3f       	cpi	r17, 0xF3	; 243
 4d0:	0c 02       	muls	r16, r28
 4d2:	0a 00       	.word	0x000a	; ????
 4d4:	00 4c       	sbci	r16, 0xC0	; 192
 4d6:	34 00       	.word	0x0034	; ????
 4d8:	03 0e       	add	r0, r19
 4da:	3a 0b       	sbc	r19, r26
 4dc:	3b 0b       	sbc	r19, r27
 4de:	49 13       	cpse	r20, r25
 4e0:	3f 0c       	add	r3, r15
 4e2:	02 0a       	sbc	r0, r18
 4e4:	00 00       	nop
 4e6:	4d 34       	cpi	r20, 0x4D	; 77
 4e8:	00 03       	mulsu	r16, r16
 4ea:	0e 3a       	cpi	r16, 0xAE	; 174
 4ec:	0b 3b       	cpi	r16, 0xBB	; 187
 4ee:	0b 49       	sbci	r16, 0x9B	; 155
 4f0:	13 3f       	cpi	r17, 0xF3	; 243
 4f2:	0c 02       	muls	r16, r28
 4f4:	0a 00       	.word	0x000a	; ????
 4f6:	00 4e       	sbci	r16, 0xE0	; 224
 4f8:	34 00       	.word	0x0034	; ????
 4fa:	03 0e       	add	r0, r19
 4fc:	3a 0b       	sbc	r19, r26
 4fe:	3b 0b       	sbc	r19, r27
 500:	49 13       	cpse	r20, r25
 502:	3f 0c       	add	r3, r15
 504:	02 0a       	sbc	r0, r18
 506:	00 00       	nop
 508:	4f 34       	cpi	r20, 0x4F	; 79
 50a:	00 03       	mulsu	r16, r16
 50c:	0e 3a       	cpi	r16, 0xAE	; 174
 50e:	0b 3b       	cpi	r16, 0xBB	; 187
 510:	0b 49       	sbci	r16, 0x9B	; 155
 512:	13 3f       	cpi	r17, 0xF3	; 243
 514:	0c 02       	muls	r16, r28
 516:	0a 00       	.word	0x000a	; ????
 518:	00 50       	subi	r16, 0x00	; 0
 51a:	34 00       	.word	0x0034	; ????
 51c:	03 0e       	add	r0, r19
 51e:	3a 0b       	sbc	r19, r26
 520:	3b 0b       	sbc	r19, r27
 522:	49 13       	cpse	r20, r25
 524:	3f 0c       	add	r3, r15
 526:	02 0a       	sbc	r0, r18
 528:	00 00       	nop
 52a:	51 34       	cpi	r21, 0x41	; 65
 52c:	00 03       	mulsu	r16, r16
 52e:	0e 3a       	cpi	r16, 0xAE	; 174
 530:	0b 3b       	cpi	r16, 0xBB	; 187
 532:	0b 49       	sbci	r16, 0x9B	; 155
 534:	13 3f       	cpi	r17, 0xF3	; 243
 536:	0c 02       	muls	r16, r28
 538:	0a 00       	.word	0x000a	; ????
 53a:	00 52       	subi	r16, 0x20	; 32
 53c:	34 00       	.word	0x0034	; ????
 53e:	03 0e       	add	r0, r19
 540:	3a 0b       	sbc	r19, r26
 542:	3b 0b       	sbc	r19, r27
 544:	49 13       	cpse	r20, r25
 546:	3f 0c       	add	r3, r15
 548:	02 0a       	sbc	r0, r18
 54a:	00 00       	nop
 54c:	53 34       	cpi	r21, 0x43	; 67
 54e:	00 03       	mulsu	r16, r16
 550:	0e 3a       	cpi	r16, 0xAE	; 174
 552:	0b 3b       	cpi	r16, 0xBB	; 187
 554:	0b 49       	sbci	r16, 0x9B	; 155
 556:	13 3f       	cpi	r17, 0xF3	; 243
 558:	0c 02       	muls	r16, r28
 55a:	0a 00       	.word	0x000a	; ????
 55c:	00 54       	subi	r16, 0x40	; 64
 55e:	34 00       	.word	0x0034	; ????
 560:	03 0e       	add	r0, r19
 562:	3a 0b       	sbc	r19, r26
 564:	3b 0b       	sbc	r19, r27
 566:	49 13       	cpse	r20, r25
 568:	3f 0c       	add	r3, r15
 56a:	02 0a       	sbc	r0, r18
 56c:	00 00       	nop
 56e:	55 34       	cpi	r21, 0x45	; 69
 570:	00 03       	mulsu	r16, r16
 572:	0e 3a       	cpi	r16, 0xAE	; 174
 574:	0b 3b       	cpi	r16, 0xBB	; 187
 576:	0b 49       	sbci	r16, 0x9B	; 155
 578:	13 3f       	cpi	r17, 0xF3	; 243
 57a:	0c 02       	muls	r16, r28
 57c:	0a 00       	.word	0x000a	; ????
 57e:	00 56       	subi	r16, 0x60	; 96
 580:	34 00       	.word	0x0034	; ????
 582:	03 0e       	add	r0, r19
 584:	3a 0b       	sbc	r19, r26
 586:	3b 0b       	sbc	r19, r27
 588:	49 13       	cpse	r20, r25
 58a:	3f 0c       	add	r3, r15
 58c:	02 0a       	sbc	r0, r18
 58e:	00 00       	nop
 590:	57 34       	cpi	r21, 0x47	; 71
 592:	00 03       	mulsu	r16, r16
 594:	0e 3a       	cpi	r16, 0xAE	; 174
 596:	0b 3b       	cpi	r16, 0xBB	; 187
 598:	0b 49       	sbci	r16, 0x9B	; 155
 59a:	13 3f       	cpi	r17, 0xF3	; 243
 59c:	0c 02       	muls	r16, r28
 59e:	0a 00       	.word	0x000a	; ????
 5a0:	00 58       	subi	r16, 0x80	; 128
 5a2:	34 00       	.word	0x0034	; ????
 5a4:	03 0e       	add	r0, r19
 5a6:	3a 0b       	sbc	r19, r26
 5a8:	3b 0b       	sbc	r19, r27
 5aa:	49 13       	cpse	r20, r25
 5ac:	3f 0c       	add	r3, r15
 5ae:	02 0a       	sbc	r0, r18
 5b0:	00 00       	nop
 5b2:	59 34       	cpi	r21, 0x49	; 73
 5b4:	00 03       	mulsu	r16, r16
 5b6:	0e 3a       	cpi	r16, 0xAE	; 174
 5b8:	0b 3b       	cpi	r16, 0xBB	; 187
 5ba:	0b 49       	sbci	r16, 0x9B	; 155
 5bc:	13 3f       	cpi	r17, 0xF3	; 243
 5be:	0c 02       	muls	r16, r28
 5c0:	0a 00       	.word	0x000a	; ????
 5c2:	00 5a       	subi	r16, 0xA0	; 160
 5c4:	34 00       	.word	0x0034	; ????
 5c6:	03 0e       	add	r0, r19
 5c8:	3a 0b       	sbc	r19, r26
 5ca:	3b 0b       	sbc	r19, r27
 5cc:	49 13       	cpse	r20, r25
 5ce:	3f 0c       	add	r3, r15
 5d0:	02 0a       	sbc	r0, r18
 5d2:	00 00       	nop
 5d4:	5b 34       	cpi	r21, 0x4B	; 75
 5d6:	00 03       	mulsu	r16, r16
 5d8:	0e 3a       	cpi	r16, 0xAE	; 174
 5da:	0b 3b       	cpi	r16, 0xBB	; 187
 5dc:	0b 49       	sbci	r16, 0x9B	; 155
 5de:	13 3f       	cpi	r17, 0xF3	; 243
 5e0:	0c 02       	muls	r16, r28
 5e2:	0a 00       	.word	0x000a	; ????
 5e4:	00 5c       	subi	r16, 0xC0	; 192
 5e6:	34 00       	.word	0x0034	; ????
 5e8:	03 0e       	add	r0, r19
 5ea:	3a 0b       	sbc	r19, r26
 5ec:	3b 0b       	sbc	r19, r27
 5ee:	49 13       	cpse	r20, r25
 5f0:	3f 0c       	add	r3, r15
 5f2:	02 0a       	sbc	r0, r18
 5f4:	00 00       	nop
 5f6:	5d 34       	cpi	r21, 0x4D	; 77
 5f8:	00 03       	mulsu	r16, r16
 5fa:	0e 3a       	cpi	r16, 0xAE	; 174
 5fc:	0b 3b       	cpi	r16, 0xBB	; 187
 5fe:	0b 49       	sbci	r16, 0x9B	; 155
 600:	13 3f       	cpi	r17, 0xF3	; 243
 602:	0c 02       	muls	r16, r28
 604:	0a 00       	.word	0x000a	; ????
 606:	00 5e       	subi	r16, 0xE0	; 224
 608:	34 00       	.word	0x0034	; ????
 60a:	03 0e       	add	r0, r19
 60c:	3a 0b       	sbc	r19, r26
 60e:	3b 0b       	sbc	r19, r27
 610:	49 13       	cpse	r20, r25
 612:	3f 0c       	add	r3, r15
 614:	02 0a       	sbc	r0, r18
 616:	00 00       	nop
 618:	5f 34       	cpi	r21, 0x4F	; 79
 61a:	00 03       	mulsu	r16, r16
 61c:	0e 3a       	cpi	r16, 0xAE	; 174
 61e:	0b 3b       	cpi	r16, 0xBB	; 187
 620:	0b 49       	sbci	r16, 0x9B	; 155
 622:	13 3f       	cpi	r17, 0xF3	; 243
 624:	0c 02       	muls	r16, r28
 626:	0a 00       	.word	0x000a	; ????
 628:	00 60       	ori	r16, 0x00	; 0
 62a:	34 00       	.word	0x0034	; ????
 62c:	03 0e       	add	r0, r19
 62e:	3a 0b       	sbc	r19, r26
 630:	3b 0b       	sbc	r19, r27
 632:	49 13       	cpse	r20, r25
 634:	3f 0c       	add	r3, r15
 636:	02 0a       	sbc	r0, r18
 638:	00 00       	nop
 63a:	61 34       	cpi	r22, 0x41	; 65
 63c:	00 03       	mulsu	r16, r16
 63e:	0e 3a       	cpi	r16, 0xAE	; 174
 640:	0b 3b       	cpi	r16, 0xBB	; 187
 642:	0b 49       	sbci	r16, 0x9B	; 155
 644:	13 3f       	cpi	r17, 0xF3	; 243
 646:	0c 02       	muls	r16, r28
 648:	0a 00       	.word	0x000a	; ????
 64a:	00 62       	ori	r16, 0x20	; 32
 64c:	34 00       	.word	0x0034	; ????
 64e:	03 0e       	add	r0, r19
 650:	3a 0b       	sbc	r19, r26
 652:	3b 0b       	sbc	r19, r27
 654:	49 13       	cpse	r20, r25
 656:	3f 0c       	add	r3, r15
 658:	02 0a       	sbc	r0, r18
 65a:	00 00       	nop
 65c:	63 34       	cpi	r22, 0x43	; 67
 65e:	00 03       	mulsu	r16, r16
 660:	0e 3a       	cpi	r16, 0xAE	; 174
 662:	0b 3b       	cpi	r16, 0xBB	; 187
 664:	0b 49       	sbci	r16, 0x9B	; 155
 666:	13 3f       	cpi	r17, 0xF3	; 243
 668:	0c 02       	muls	r16, r28
 66a:	0a 00       	.word	0x000a	; ????
 66c:	00 00       	nop
 66e:	01 11       	cpse	r16, r1
 670:	01 25       	eor	r16, r1
 672:	0e 13       	cpse	r16, r30
 674:	0b 03       	fmul	r16, r19
 676:	0e 1b       	sub	r16, r30
 678:	0e 55       	subi	r16, 0x5E	; 94
 67a:	17 11       	cpse	r17, r7
 67c:	01 10       	cpse	r0, r1
 67e:	17 00       	.word	0x0017	; ????
 680:	00 02       	muls	r16, r16
 682:	24 00       	.word	0x0024	; ????
 684:	0b 0b       	sbc	r16, r27
 686:	3e 0b       	sbc	r19, r30
 688:	03 0e       	add	r0, r19
 68a:	00 00       	nop
 68c:	03 16       	cp	r0, r19
 68e:	00 03       	mulsu	r16, r16
 690:	0e 3a       	cpi	r16, 0xAE	; 174
 692:	0b 3b       	cpi	r16, 0xBB	; 187
 694:	0b 49       	sbci	r16, 0x9B	; 155
 696:	13 00       	.word	0x0013	; ????
 698:	00 04       	cpc	r0, r0
 69a:	24 00       	.word	0x0024	; ????
 69c:	0b 0b       	sbc	r16, r27
 69e:	3e 0b       	sbc	r19, r30
 6a0:	03 08       	sbc	r0, r3
 6a2:	00 00       	nop
 6a4:	05 02       	muls	r16, r21
 6a6:	01 03       	mulsu	r16, r17
 6a8:	0e 0b       	sbc	r16, r30
 6aa:	0b 3a       	cpi	r16, 0xAB	; 171
 6ac:	0b 3b       	cpi	r16, 0xBB	; 187
 6ae:	0b 01       	movw	r0, r22
 6b0:	13 00       	.word	0x0013	; ????
 6b2:	00 06       	cpc	r0, r16
 6b4:	0d 00       	.word	0x000d	; ????
 6b6:	03 0e       	add	r0, r19
 6b8:	3a 0b       	sbc	r19, r26
 6ba:	3b 0b       	sbc	r19, r27
 6bc:	49 13       	cpse	r20, r25
 6be:	38 0b       	sbc	r19, r24
 6c0:	32 0b       	sbc	r19, r18
 6c2:	00 00       	nop
 6c4:	07 0d       	add	r16, r7
 6c6:	00 03       	mulsu	r16, r16
 6c8:	0e 3a       	cpi	r16, 0xAE	; 174
 6ca:	0b 3b       	cpi	r16, 0xBB	; 187
 6cc:	0b 49       	sbci	r16, 0x9B	; 155
 6ce:	13 38       	cpi	r17, 0x83	; 131
 6d0:	0b 00       	.word	0x000b	; ????
 6d2:	00 08       	sbc	r0, r0
 6d4:	2e 01       	movw	r4, r28
 6d6:	3f 19       	sub	r19, r15
 6d8:	03 0e       	add	r0, r19
 6da:	3a 0b       	sbc	r19, r26
 6dc:	3b 0b       	sbc	r19, r27
 6de:	6e 0e       	add	r6, r30
 6e0:	49 13       	cpse	r20, r25
 6e2:	32 0b       	sbc	r19, r18
 6e4:	3c 19       	sub	r19, r12
 6e6:	64 13       	cpse	r22, r20
 6e8:	00 00       	nop
 6ea:	09 05       	cpc	r16, r9
 6ec:	00 49       	sbci	r16, 0x90	; 144
 6ee:	13 34       	cpi	r17, 0x43	; 67
 6f0:	19 00       	.word	0x0019	; ????
 6f2:	00 0a       	sbc	r0, r16
 6f4:	05 00       	.word	0x0005	; ????
 6f6:	49 13       	cpse	r20, r25
 6f8:	00 00       	nop
 6fa:	0b 0f       	add	r16, r27
 6fc:	00 0b       	sbc	r16, r16
 6fe:	0b 49       	sbci	r16, 0x9B	; 155
 700:	13 00       	.word	0x0013	; ????
 702:	00 0c       	add	r0, r0
 704:	26 00       	.word	0x0026	; ????
 706:	49 13       	cpse	r20, r25
 708:	00 00       	nop
 70a:	0d 2e       	mov	r0, r29
 70c:	01 3f       	cpi	r16, 0xF1	; 241
 70e:	19 03       	fmul	r17, r17
 710:	0e 3a       	cpi	r16, 0xAE	; 174
 712:	0b 3b       	cpi	r16, 0xBB	; 187
 714:	0b 49       	sbci	r16, 0x9B	; 155
 716:	13 11       	cpse	r17, r3
 718:	01 12       	cpse	r0, r17
 71a:	06 40       	sbci	r16, 0x06	; 6
 71c:	18 97       	sbiw	r26, 0x08	; 8
 71e:	42 19       	sub	r20, r2
 720:	01 13       	cpse	r16, r17
 722:	00 00       	nop
 724:	0e 34       	cpi	r16, 0x4E	; 78
 726:	00 03       	mulsu	r16, r16
 728:	0e 3a       	cpi	r16, 0xAE	; 174
 72a:	0b 3b       	cpi	r16, 0xBB	; 187
 72c:	0b 49       	sbci	r16, 0x9B	; 155
 72e:	13 02       	muls	r17, r19
 730:	18 00       	.word	0x0018	; ????
 732:	00 0f       	add	r16, r16
 734:	2e 01       	movw	r4, r28
 736:	47 13       	cpse	r20, r23
 738:	64 13       	cpse	r22, r20
 73a:	20 0b       	sbc	r18, r16
 73c:	64 13       	cpse	r22, r20
 73e:	00 00       	nop
 740:	10 05       	cpc	r17, r0
 742:	00 03       	mulsu	r16, r16
 744:	0e 49       	sbci	r16, 0x9E	; 158
 746:	13 34       	cpi	r17, 0x43	; 67
 748:	19 00       	.word	0x0019	; ????
 74a:	00 11       	cpse	r16, r0
 74c:	05 00       	.word	0x0005	; ????
 74e:	03 0e       	add	r0, r19
 750:	3a 0b       	sbc	r19, r26
 752:	3b 0b       	sbc	r19, r27
 754:	49 13       	cpse	r20, r25
 756:	00 00       	nop
 758:	00 01       	movw	r0, r0
 75a:	11 00       	.word	0x0011	; ????
 75c:	10 06       	cpc	r1, r16
 75e:	11 01       	movw	r2, r2
 760:	12 01       	movw	r2, r4
 762:	03 0e       	add	r0, r19
 764:	1b 0e       	add	r1, r27
 766:	25 0e       	add	r2, r21
 768:	13 05       	cpc	r17, r3
 76a:	00 00       	nop
	...

Disassembly of section .debug_line:

00000000 <.debug_line>:
   0:	19 00       	.word	0x0019	; ????
   2:	00 00       	nop
   4:	02 00       	.word	0x0002	; ????
   6:	13 00       	.word	0x0013	; ????
   8:	00 00       	nop
   a:	02 01       	movw	r0, r4
   c:	fb 0e       	add	r15, r27
   e:	0d 00       	.word	0x000d	; ????
  10:	01 01       	movw	r0, r2
  12:	01 01       	movw	r0, r2
  14:	00 00       	nop
  16:	00 01       	movw	r0, r0
  18:	00 00       	nop
  1a:	01 00       	.word	0x0001	; ????
  1c:	00 72       	andi	r16, 0x20	; 32
  1e:	00 00       	nop
  20:	00 02       	muls	r16, r16
  22:	00 56       	subi	r16, 0x60	; 96
  24:	00 00       	nop
  26:	00 02       	muls	r16, r16
  28:	01 fb       	bst	r16, 1
  2a:	0e 0d       	add	r16, r14
  2c:	00 01       	movw	r0, r0
  2e:	01 01       	movw	r0, r2
  30:	01 00       	.word	0x0001	; ????
  32:	00 00       	nop
  34:	01 00       	.word	0x0001	; ????
  36:	00 01       	movw	r0, r0
  38:	2f 75       	andi	r18, 0x5F	; 95
  3a:	73 72       	andi	r23, 0x23	; 35
  3c:	2f 6c       	ori	r18, 0xCF	; 207
  3e:	6f 63       	ori	r22, 0x3F	; 63
  40:	61 6c       	ori	r22, 0xC1	; 193
  42:	2f 43       	sbci	r18, 0x3F	; 63
  44:	65 6c       	ori	r22, 0xC5	; 197
  46:	6c 61       	ori	r22, 0x1C	; 28
  48:	72 2f       	mov	r23, r18
  4a:	61 76       	andi	r22, 0x61	; 97
  4c:	72 2d       	mov	r23, r2
  4e:	67 63       	ori	r22, 0x37	; 55
  50:	63 2f       	mov	r22, r19
  52:	37 2e       	mov	r3, r23
  54:	33 2e       	mov	r3, r19
  56:	30 2f       	mov	r19, r16
  58:	61 76       	andi	r22, 0x61	; 97
  5a:	72 2f       	mov	r23, r18
  5c:	69 6e       	ori	r22, 0xE9	; 233
  5e:	63 6c       	ori	r22, 0xC3	; 195
  60:	75 64       	ori	r23, 0x45	; 69
  62:	65 00       	.word	0x0065	; ????
  64:	00 70       	andi	r16, 0x00	; 0
  66:	62 31       	cpi	r22, 0x12	; 18
  68:	2e 63       	ori	r18, 0x3E	; 62
  6a:	70 70       	andi	r23, 0x00	; 0
  6c:	00 00       	nop
  6e:	00 00       	nop
  70:	73 74       	andi	r23, 0x43	; 67
  72:	64 69       	ori	r22, 0x94	; 148
  74:	6e 74       	andi	r22, 0x4E	; 78
  76:	2e 68       	ori	r18, 0x8E	; 142
  78:	00 01       	movw	r0, r0
  7a:	00 00       	nop
  7c:	00 00       	nop
  7e:	05 02       	muls	r16, r21
  80:	94 00       	.word	0x0094	; ????
  82:	00 00       	nop
  84:	03 0c       	add	r0, r3
  86:	01 03       	mulsu	r16, r17
  88:	04 09       	sbc	r16, r4
  8a:	00 00       	nop
  8c:	01 09       	sbc	r16, r1
  8e:	06 00       	.word	0x0006	; ????
  90:	00 01       	movw	r0, r0
  92:	01 5d       	subi	r16, 0xD1	; 209
  94:	00 00       	nop
  96:	00 02       	muls	r16, r16
  98:	00 40       	sbci	r16, 0x00	; 0
  9a:	00 00       	nop
  9c:	00 02       	muls	r16, r16
  9e:	01 fb       	bst	r16, 1
  a0:	0e 0d       	add	r16, r14
  a2:	00 01       	movw	r0, r0
  a4:	01 01       	movw	r0, r2
  a6:	01 00       	.word	0x0001	; ????
  a8:	00 00       	nop
  aa:	01 00       	.word	0x0001	; ????
  ac:	00 01       	movw	r0, r0
  ae:	2e 2e       	mov	r2, r30
  b0:	2f 2e       	mov	r2, r31
  b2:	2e 2f       	mov	r18, r30
  b4:	2e 2e       	mov	r2, r30
  b6:	2f 2e       	mov	r2, r31
  b8:	2e 2f       	mov	r18, r30
  ba:	6c 69       	ori	r22, 0x9C	; 156
  bc:	62 67       	ori	r22, 0x72	; 114
  be:	63 63       	ori	r22, 0x33	; 51
  c0:	2f 63       	ori	r18, 0x3F	; 63
  c2:	6f 6e       	ori	r22, 0xEF	; 239
  c4:	66 69       	ori	r22, 0x96	; 150
  c6:	67 2f       	mov	r22, r23
  c8:	61 76       	andi	r22, 0x61	; 97
  ca:	72 00       	.word	0x0072	; ????
  cc:	00 6c       	ori	r16, 0xC0	; 192
  ce:	69 62       	ori	r22, 0x29	; 41
  d0:	31 66       	ori	r19, 0x61	; 97
  d2:	75 6e       	ori	r23, 0xE5	; 229
  d4:	63 73       	andi	r22, 0x33	; 51
  d6:	2e 53       	subi	r18, 0x3E	; 62
  d8:	00 01       	movw	r0, r0
  da:	00 00       	nop
  dc:	00 00       	nop
  de:	05 02       	muls	r16, r21
  e0:	9a 00       	.word	0x009a	; ????
  e2:	00 00       	nop
  e4:	03 e5       	ldi	r16, 0x53	; 83
  e6:	11 01       	movw	r2, r2
  e8:	03 02       	muls	r16, r19
  ea:	09 02       	muls	r16, r25
  ec:	00 01       	movw	r0, r0
  ee:	09 02       	muls	r16, r25
  f0:	00 00       	nop
  f2:	01 01       	movw	r0, r2

Disassembly of section .debug_frame:

00000000 <.debug_frame>:
   0:	10 00       	.word	0x0010	; ????
   2:	00 00       	nop
   4:	ff ff       	.word	0xffff	; ????
   6:	ff ff       	.word	0xffff	; ????
   8:	01 00       	.word	0x0001	; ????
   a:	02 7f       	andi	r16, 0xF2	; 242
   c:	24 0c       	add	r2, r4
   e:	20 02       	muls	r18, r16
  10:	a4 01       	movw	r20, r8
  12:	00 00       	nop
  14:	0c 00       	.word	0x000c	; ????
  16:	00 00       	nop
  18:	00 00       	nop
  1a:	00 00       	nop
  1c:	94 00       	.word	0x0094	; ????
  1e:	00 00       	nop
  20:	06 00       	.word	0x0006	; ????
	...

Disassembly of section .debug_str:

00000000 <.debug_str>:
   0:	61 76       	andi	r22, 0x61	; 97
   2:	72 2d       	mov	r23, r2
   4:	6c 69       	ori	r22, 0x9C	; 156
   6:	62 63       	ori	r22, 0x32	; 50
   8:	20 32       	cpi	r18, 0x20	; 32
   a:	2e 30       	cpi	r18, 0x0E	; 14
   c:	2e 30       	cpi	r18, 0x0E	; 14
   e:	00 75       	andi	r16, 0x50	; 80
  10:	69 6e       	ori	r22, 0xE9	; 233
  12:	74 38       	cpi	r23, 0x84	; 132
  14:	5f 74       	andi	r21, 0x4F	; 79
  16:	00 75       	andi	r16, 0x50	; 80
  18:	69 6e       	ori	r22, 0xE9	; 233
  1a:	74 31       	cpi	r23, 0x14	; 20
  1c:	36 5f       	subi	r19, 0xF6	; 246
  1e:	74 00       	.word	0x0074	; ????
  20:	5f 5f       	subi	r21, 0xFF	; 255
  22:	65 65       	ori	r22, 0x55	; 85
  24:	70 72       	andi	r23, 0x20	; 32
  26:	6f 6d       	ori	r22, 0xDF	; 223
  28:	00 41       	sbci	r16, 0x10	; 16
  2a:	44 43       	sbci	r20, 0x34	; 52
  2c:	53 52       	subi	r21, 0x23	; 35
  2e:	42 00       	.word	0x0042	; ????
  30:	41 43       	sbci	r20, 0x31	; 49
  32:	53 52       	subi	r21, 0x23	; 35
  34:	00 44       	sbci	r16, 0x40	; 64
  36:	49 44       	sbci	r20, 0x49	; 73
  38:	52 31       	cpi	r21, 0x12	; 18
  3a:	00 55       	subi	r16, 0x50	; 80
  3c:	44 52       	subi	r20, 0x24	; 36
  3e:	30 00       	.word	0x0030	; ????
  40:	55 43       	sbci	r21, 0x35	; 53
  42:	53 52       	subi	r21, 0x23	; 35
  44:	30 41       	sbci	r19, 0x10	; 16
  46:	00 55       	subi	r16, 0x50	; 80
  48:	43 53       	subi	r20, 0x33	; 51
  4a:	52 30       	cpi	r21, 0x02	; 2
  4c:	42 00       	.word	0x0042	; ????
  4e:	55 43       	sbci	r21, 0x35	; 53
  50:	53 52       	subi	r21, 0x23	; 35
  52:	30 43       	sbci	r19, 0x30	; 48
  54:	00 55       	subi	r16, 0x50	; 80
  56:	42 52       	subi	r20, 0x22	; 34
  58:	52 30       	cpi	r21, 0x02	; 2
  5a:	00 50       	subi	r16, 0x00	; 0
  5c:	4f 52       	subi	r20, 0x2F	; 47
  5e:	54 41       	sbci	r21, 0x14	; 20
  60:	00 44       	sbci	r16, 0x40	; 64
  62:	44 52       	subi	r20, 0x24	; 36
  64:	41 00       	.word	0x0041	; ????
  66:	50 49       	sbci	r21, 0x90	; 144
  68:	4e 41       	sbci	r20, 0x1E	; 30
  6a:	00 50       	subi	r16, 0x00	; 0
  6c:	4f 52       	subi	r20, 0x2F	; 47
  6e:	54 42       	sbci	r21, 0x24	; 36
  70:	00 44       	sbci	r16, 0x40	; 64
  72:	44 52       	subi	r20, 0x24	; 36
  74:	42 00       	.word	0x0042	; ????
  76:	50 49       	sbci	r21, 0x90	; 144
  78:	4e 42       	sbci	r20, 0x2E	; 46
  7a:	00 50       	subi	r16, 0x00	; 0
  7c:	4f 52       	subi	r20, 0x2F	; 47
  7e:	54 43       	sbci	r21, 0x34	; 52
  80:	00 44       	sbci	r16, 0x40	; 64
  82:	44 52       	subi	r20, 0x24	; 36
  84:	43 00       	.word	0x0043	; ????
  86:	50 49       	sbci	r21, 0x90	; 144
  88:	4e 43       	sbci	r20, 0x3E	; 62
  8a:	00 50       	subi	r16, 0x00	; 0
  8c:	4f 52       	subi	r20, 0x2F	; 47
  8e:	54 44       	sbci	r21, 0x44	; 68
  90:	00 44       	sbci	r16, 0x40	; 64
  92:	44 52       	subi	r20, 0x24	; 36
  94:	44 00       	.word	0x0044	; ????
  96:	50 49       	sbci	r21, 0x90	; 144
  98:	4e 44       	sbci	r20, 0x4E	; 78
  9a:	00 4f       	sbci	r16, 0xF0	; 240
  9c:	43 52       	subi	r20, 0x23	; 35
  9e:	30 42       	sbci	r19, 0x20	; 32
  a0:	00 4f       	sbci	r16, 0xF0	; 240
  a2:	43 52       	subi	r20, 0x23	; 35
  a4:	30 41       	sbci	r19, 0x10	; 16
  a6:	00 54       	subi	r16, 0x40	; 64
  a8:	43 4e       	sbci	r20, 0xE3	; 227
  aa:	54 30       	cpi	r21, 0x04	; 4
  ac:	00 54       	subi	r16, 0x40	; 64
  ae:	43 43       	sbci	r20, 0x33	; 51
  b0:	52 30       	cpi	r21, 0x02	; 2
  b2:	42 00       	.word	0x0042	; ????
  b4:	54 43       	sbci	r21, 0x34	; 52
  b6:	43 52       	subi	r20, 0x23	; 35
  b8:	30 41       	sbci	r19, 0x10	; 16
  ba:	00 54       	subi	r16, 0x40	; 64
  bc:	49 4d       	sbci	r20, 0xD9	; 217
  be:	53 4b       	sbci	r21, 0xB3	; 179
  c0:	30 00       	.word	0x0030	; ????
  c2:	54 49       	sbci	r21, 0x94	; 148
  c4:	46 52       	subi	r20, 0x26	; 38
  c6:	30 00       	.word	0x0030	; ????
  c8:	47 54       	subi	r20, 0x47	; 71
  ca:	43 43       	sbci	r20, 0x33	; 51
  cc:	52 00       	.word	0x0052	; ????
  ce:	54 49       	sbci	r21, 0x94	; 148
  d0:	4d 53       	subi	r20, 0x3D	; 61
  d2:	4b 32       	cpi	r20, 0x2B	; 43
  d4:	00 54       	subi	r16, 0x40	; 64
  d6:	49 46       	sbci	r20, 0x69	; 105
  d8:	52 32       	cpi	r21, 0x22	; 34
  da:	00 54       	subi	r16, 0x40	; 64
  dc:	43 43       	sbci	r20, 0x33	; 51
  de:	52 32       	cpi	r21, 0x22	; 34
  e0:	41 00       	.word	0x0041	; ????
  e2:	54 43       	sbci	r21, 0x34	; 52
  e4:	43 52       	subi	r20, 0x23	; 35
  e6:	32 42       	sbci	r19, 0x22	; 34
  e8:	00 54       	subi	r16, 0x40	; 64
  ea:	43 4e       	sbci	r20, 0xE3	; 227
  ec:	54 32       	cpi	r21, 0x24	; 36
  ee:	00 4f       	sbci	r16, 0xF0	; 240
  f0:	43 52       	subi	r20, 0x23	; 35
  f2:	32 42       	sbci	r19, 0x22	; 34
  f4:	00 4f       	sbci	r16, 0xF0	; 240
  f6:	43 52       	subi	r20, 0x23	; 35
  f8:	32 41       	sbci	r19, 0x12	; 18
  fa:	00 41       	sbci	r16, 0x10	; 16
  fc:	53 53       	subi	r21, 0x33	; 51
  fe:	52 00       	.word	0x0052	; ????
 100:	47 54       	subi	r20, 0x47	; 71
 102:	43 43       	sbci	r20, 0x33	; 51
 104:	52 00       	.word	0x0052	; ????
 106:	57 44       	sbci	r21, 0x47	; 71
 108:	54 43       	sbci	r21, 0x34	; 52
 10a:	53 52       	subi	r21, 0x23	; 35
 10c:	00 4f       	sbci	r16, 0xF0	; 240
 10e:	43 44       	sbci	r20, 0x43	; 67
 110:	52 00       	.word	0x0052	; ????
 112:	4d 43       	sbci	r20, 0x3D	; 61
 114:	55 43       	sbci	r21, 0x35	; 53
 116:	52 00       	.word	0x0052	; ????
 118:	4d 43       	sbci	r20, 0x3D	; 61
 11a:	55 53       	subi	r21, 0x35	; 53
 11c:	52 00       	.word	0x0052	; ????
 11e:	53 50       	subi	r21, 0x03	; 3
 120:	4d 43       	sbci	r20, 0x3D	; 61
 122:	53 52       	subi	r21, 0x23	; 35
 124:	00 45       	sbci	r16, 0x50	; 80
 126:	49 43       	sbci	r20, 0x39	; 57
 128:	52 41       	sbci	r21, 0x12	; 18
 12a:	00 45       	sbci	r16, 0x50	; 80
 12c:	49 4d       	sbci	r20, 0xD9	; 217
 12e:	53 4b       	sbci	r21, 0xB3	; 179
 130:	00 45       	sbci	r16, 0x50	; 80
 132:	49 46       	sbci	r20, 0x69	; 105
 134:	52 00       	.word	0x0052	; ????
 136:	50 43       	sbci	r21, 0x30	; 48
 138:	4d 53       	subi	r20, 0x3D	; 61
 13a:	4b 33       	cpi	r20, 0x3B	; 59
 13c:	00 50       	subi	r16, 0x00	; 0
 13e:	43 4d       	sbci	r20, 0xD3	; 211
 140:	53 4b       	sbci	r21, 0xB3	; 179
 142:	32 00       	.word	0x0032	; ????
 144:	50 43       	sbci	r21, 0x30	; 48
 146:	4d 53       	subi	r20, 0x3D	; 61
 148:	4b 31       	cpi	r20, 0x1B	; 27
 14a:	00 50       	subi	r16, 0x00	; 0
 14c:	43 4d       	sbci	r20, 0xD3	; 211
 14e:	53 4b       	sbci	r21, 0xB3	; 179
 150:	30 00       	.word	0x0030	; ????
 152:	50 43       	sbci	r21, 0x30	; 48
 154:	49 46       	sbci	r20, 0x69	; 105
 156:	52 00       	.word	0x0052	; ????
 158:	50 43       	sbci	r21, 0x30	; 48
 15a:	49 43       	sbci	r20, 0x39	; 57
 15c:	52 00       	.word	0x0052	; ????
 15e:	41 44       	sbci	r20, 0x41	; 65
 160:	4d 55       	subi	r20, 0x5D	; 93
 162:	58 00       	.word	0x0058	; ????
 164:	41 44       	sbci	r20, 0x41	; 65
 166:	43 00       	.word	0x0043	; ????
 168:	41 44       	sbci	r20, 0x41	; 65
 16a:	43 53       	subi	r20, 0x33	; 51
 16c:	52 41       	sbci	r21, 0x12	; 18
 16e:	00 41       	sbci	r16, 0x10	; 16
 170:	44 43       	sbci	r20, 0x34	; 52
 172:	53 52       	subi	r21, 0x23	; 35
 174:	42 00       	.word	0x0042	; ????
 176:	44 49       	sbci	r20, 0x94	; 148
 178:	44 52       	subi	r20, 0x24	; 36
 17a:	30 00       	.word	0x0030	; ????
 17c:	54 49       	sbci	r21, 0x94	; 148
 17e:	4d 53       	subi	r20, 0x3D	; 61
 180:	4b 31       	cpi	r20, 0x1B	; 27
 182:	00 54       	subi	r16, 0x40	; 64
 184:	49 46       	sbci	r20, 0x69	; 105
 186:	52 31       	cpi	r21, 0x12	; 18
 188:	00 54       	subi	r16, 0x40	; 64
 18a:	43 43       	sbci	r20, 0x33	; 51
 18c:	52 31       	cpi	r21, 0x12	; 18
 18e:	41 00       	.word	0x0041	; ????
 190:	54 43       	sbci	r21, 0x34	; 52
 192:	43 52       	subi	r20, 0x23	; 35
 194:	31 42       	sbci	r19, 0x21	; 33
 196:	00 54       	subi	r16, 0x40	; 64
 198:	43 43       	sbci	r20, 0x33	; 51
 19a:	52 31       	cpi	r21, 0x12	; 18
 19c:	43 00       	.word	0x0043	; ????
 19e:	54 43       	sbci	r21, 0x34	; 52
 1a0:	4e 54       	subi	r20, 0x4E	; 78
 1a2:	31 00       	.word	0x0031	; ????
 1a4:	4f 43       	sbci	r20, 0x3F	; 63
 1a6:	52 31       	cpi	r21, 0x12	; 18
 1a8:	41 00       	.word	0x0041	; ????
 1aa:	4f 43       	sbci	r20, 0x3F	; 63
 1ac:	52 31       	cpi	r21, 0x12	; 18
 1ae:	42 00       	.word	0x0042	; ????
 1b0:	49 43       	sbci	r20, 0x39	; 57
 1b2:	52 31       	cpi	r21, 0x12	; 18
 1b4:	00 45       	sbci	r16, 0x50	; 80
 1b6:	45 41       	sbci	r20, 0x15	; 21
 1b8:	52 00       	.word	0x0052	; ????
 1ba:	45 45       	sbci	r20, 0x55	; 85
 1bc:	44 52       	subi	r20, 0x24	; 36
 1be:	00 45       	sbci	r16, 0x50	; 80
 1c0:	45 43       	sbci	r20, 0x35	; 53
 1c2:	52 00       	.word	0x0052	; ????
 1c4:	53 50       	subi	r21, 0x03	; 3
 1c6:	44 52       	subi	r20, 0x24	; 36
 1c8:	30 00       	.word	0x0030	; ????
 1ca:	53 50       	subi	r21, 0x03	; 3
 1cc:	53 52       	subi	r21, 0x23	; 35
 1ce:	30 00       	.word	0x0030	; ????
 1d0:	53 50       	subi	r21, 0x03	; 3
 1d2:	43 52       	subi	r20, 0x23	; 35
 1d4:	30 00       	.word	0x0030	; ????
 1d6:	54 57       	subi	r21, 0x74	; 116
 1d8:	41 4d       	sbci	r20, 0xD1	; 209
 1da:	52 00       	.word	0x0052	; ????
 1dc:	54 57       	subi	r21, 0x74	; 116
 1de:	42 52       	subi	r20, 0x22	; 34
 1e0:	00 54       	subi	r16, 0x40	; 64
 1e2:	57 43       	sbci	r21, 0x37	; 55
 1e4:	52 00       	.word	0x0052	; ????
 1e6:	54 57       	subi	r21, 0x74	; 116
 1e8:	53 52       	subi	r21, 0x23	; 35
 1ea:	00 54       	subi	r16, 0x40	; 64
 1ec:	57 44       	sbci	r21, 0x47	; 71
 1ee:	52 00       	.word	0x0052	; ????
 1f0:	54 57       	subi	r21, 0x74	; 116
 1f2:	41 52       	subi	r20, 0x21	; 33
 1f4:	00 55       	subi	r16, 0x50	; 80
 1f6:	44 52       	subi	r20, 0x24	; 36
 1f8:	31 00       	.word	0x0031	; ????
 1fa:	55 43       	sbci	r21, 0x35	; 53
 1fc:	53 52       	subi	r21, 0x23	; 35
 1fe:	31 41       	sbci	r19, 0x11	; 17
 200:	00 55       	subi	r16, 0x50	; 80
 202:	43 53       	subi	r20, 0x33	; 51
 204:	52 31       	cpi	r21, 0x12	; 18
 206:	42 00       	.word	0x0042	; ????
 208:	55 43       	sbci	r21, 0x35	; 53
 20a:	53 52       	subi	r21, 0x23	; 35
 20c:	31 43       	sbci	r19, 0x31	; 49
 20e:	00 55       	subi	r16, 0x50	; 80
 210:	42 52       	subi	r20, 0x22	; 34
 212:	52 31       	cpi	r21, 0x12	; 18
 214:	00 53       	subi	r16, 0x30	; 48
 216:	52 45       	sbci	r21, 0x52	; 82
 218:	47 00       	.word	0x0047	; ????
 21a:	53 50       	subi	r21, 0x03	; 3
 21c:	00 4d       	sbci	r16, 0xD0	; 208
 21e:	43 55       	subi	r20, 0x53	; 83
 220:	43 52       	subi	r20, 0x23	; 35
 222:	00 4d       	sbci	r16, 0xD0	; 208
 224:	43 55       	subi	r20, 0x53	; 83
 226:	53 52       	subi	r21, 0x23	; 35
 228:	00 4f       	sbci	r16, 0xF0	; 240
 22a:	53 43       	sbci	r21, 0x33	; 51
 22c:	43 41       	sbci	r20, 0x13	; 19
 22e:	4c 00       	.word	0x004c	; ????
 230:	43 4c       	sbci	r20, 0xC3	; 195
 232:	4b 50       	subi	r20, 0x0B	; 11
 234:	52 00       	.word	0x0052	; ????
 236:	53 4d       	sbci	r21, 0xD3	; 211
 238:	43 52       	subi	r20, 0x23	; 35
 23a:	00 47       	sbci	r16, 0x70	; 112
 23c:	50 49       	sbci	r21, 0x90	; 144
 23e:	4f 52       	subi	r20, 0x2F	; 47
 240:	32 00       	.word	0x0032	; ????
 242:	47 50       	subi	r20, 0x07	; 7
 244:	49 4f       	sbci	r20, 0xF9	; 249
 246:	52 31       	cpi	r21, 0x12	; 18
 248:	00 47       	sbci	r16, 0x70	; 112
 24a:	50 49       	sbci	r21, 0x90	; 144
 24c:	4f 52       	subi	r20, 0x2F	; 47
 24e:	30 00       	.word	0x0030	; ????
 250:	50 52       	subi	r21, 0x20	; 32
 252:	52 30       	cpi	r21, 0x02	; 2
 254:	00 70       	andi	r16, 0x00	; 0
 256:	62 31       	cpi	r22, 0x12	; 18
 258:	2e 63       	ori	r18, 0x3E	; 62
 25a:	70 70       	andi	r23, 0x00	; 0
 25c:	00 5f       	subi	r16, 0xF0	; 240
 25e:	5a 4e       	sbci	r21, 0xEA	; 234
 260:	34 4e       	sbci	r19, 0xE4	; 228
 262:	69 63       	ori	r22, 0x39	; 57
 264:	65 36       	cpi	r22, 0x65	; 101
 266:	63 68       	ori	r22, 0x83	; 131
 268:	61 6e       	ori	r22, 0xE1	; 225
 26a:	67 65       	ori	r22, 0x57	; 87
 26c:	45 68       	ori	r20, 0x85	; 133
 26e:	00 6e       	ori	r16, 0xE0	; 224
 270:	69 63       	ori	r22, 0x39	; 57
 272:	65 00       	.word	0x0065	; ????
 274:	6e 65       	ori	r22, 0x5E	; 94
 276:	77 5f       	subi	r23, 0xF7	; 247
 278:	69 6e       	ori	r22, 0xE9	; 233
 27a:	74 00       	.word	0x0074	; ????
 27c:	6c 6f       	ori	r22, 0xFC	; 252
 27e:	6e 67       	ori	r22, 0x7E	; 126
 280:	20 6c       	ori	r18, 0xC0	; 192
 282:	6f 6e       	ori	r22, 0xEF	; 239
 284:	67 20       	and	r6, r7
 286:	75 6e       	ori	r23, 0xE5	; 229
 288:	73 69       	ori	r23, 0x93	; 147
 28a:	67 6e       	ori	r22, 0xE7	; 231
 28c:	65 64       	ori	r22, 0x45	; 69
 28e:	20 69       	ori	r18, 0x90	; 144
 290:	6e 74       	andi	r22, 0x4E	; 78
 292:	00 75       	andi	r16, 0x50	; 80
 294:	6e 73       	andi	r22, 0x3E	; 62
 296:	69 67       	ori	r22, 0x79	; 121
 298:	6e 65       	ori	r22, 0x5E	; 94
 29a:	64 20       	and	r6, r4
 29c:	63 68       	ori	r22, 0x83	; 131
 29e:	61 72       	andi	r22, 0x21	; 33
 2a0:	00 74       	andi	r16, 0x40	; 64
 2a2:	68 69       	ori	r22, 0x98	; 152
 2a4:	73 00       	.word	0x0073	; ????
 2a6:	4e 69       	ori	r20, 0x9E	; 158
 2a8:	63 65       	ori	r22, 0x53	; 83
 2aa:	00 6d       	ori	r16, 0xD0	; 208
 2ac:	61 69       	ori	r22, 0x91	; 145
 2ae:	6e 00       	.word	0x006e	; ????
 2b0:	79 65       	ori	r23, 0x59	; 89
 2b2:	73 73       	andi	r23, 0x33	; 51
 2b4:	69 72       	andi	r22, 0x29	; 41
 2b6:	00 2f       	mov	r16, r16
 2b8:	55 73       	andi	r21, 0x35	; 53
 2ba:	65 72       	andi	r22, 0x25	; 37
 2bc:	73 2f       	mov	r23, r19
 2be:	73 68       	ori	r23, 0x83	; 131
 2c0:	69 2f       	mov	r22, r25
 2c2:	44 6f       	ori	r20, 0xF4	; 244
 2c4:	63 75       	andi	r22, 0x53	; 83
 2c6:	6d 65       	ori	r22, 0x5D	; 93
 2c8:	6e 74       	andi	r22, 0x4E	; 78
 2ca:	73 2f       	mov	r23, r19
 2cc:	70 6f       	ori	r23, 0xF0	; 240
 2ce:	6c 79       	andi	r22, 0x9C	; 156
 2d0:	67 69       	ori	r22, 0x97	; 151
 2d2:	74 2f       	mov	r23, r20
 2d4:	73 65       	ori	r23, 0x53	; 83
 2d6:	73 73       	andi	r23, 0x33	; 51
 2d8:	69 6f       	ori	r22, 0xF9	; 249
 2da:	6e 34       	cpi	r22, 0x4E	; 78
 2dc:	2f 49       	sbci	r18, 0x9F	; 159
 2de:	4e 46       	sbci	r20, 0x6E	; 110
 2e0:	31 39       	cpi	r19, 0x91	; 145
 2e2:	30 30       	cpi	r19, 0x00	; 0
 2e4:	2f 50       	subi	r18, 0x0F	; 15
 2e6:	72 6f       	ori	r23, 0xF2	; 242
 2e8:	6a 65       	ori	r22, 0x5A	; 90
 2ea:	74 52       	subi	r23, 0x24	; 36
 2ec:	6f 62       	ori	r22, 0x2F	; 47
 2ee:	6f 2f       	mov	r22, r31
 2f0:	6e 69       	ori	r22, 0x9E	; 158
 2f2:	63 65       	ori	r22, 0x53	; 83
 2f4:	2f 70       	andi	r18, 0x0F	; 15
 2f6:	62 31       	cpi	r22, 0x12	; 18
 2f8:	00 75       	andi	r16, 0x50	; 80
 2fa:	69 6e       	ori	r22, 0xE9	; 233
 2fc:	74 38       	cpi	r23, 0x84	; 132
 2fe:	5f 74       	andi	r21, 0x4F	; 79
 300:	00 63       	ori	r16, 0x30	; 48
 302:	68 61       	ori	r22, 0x18	; 24
 304:	6e 67       	ori	r22, 0x7E	; 126
 306:	65 00       	.word	0x0065	; ????
 308:	47 4e       	sbci	r20, 0xE7	; 231
 30a:	55 20       	and	r5, r5
 30c:	43 2b       	or	r20, r19
 30e:	2b 31       	cpi	r18, 0x1B	; 27
 310:	34 20       	and	r3, r4
 312:	37 2e       	mov	r3, r23
 314:	33 2e       	mov	r3, r19
 316:	30 20       	and	r3, r0
 318:	2d 6d       	ori	r18, 0xDD	; 221
 31a:	6e 2d       	mov	r22, r14
 31c:	66 6c       	ori	r22, 0xC6	; 198
 31e:	61 73       	andi	r22, 0x31	; 49
 320:	68 3d       	cpi	r22, 0xD8	; 216
 322:	31 20       	and	r3, r1
 324:	2d 6d       	ori	r18, 0xDD	; 221
 326:	6d 63       	ori	r22, 0x3D	; 61
 328:	75 3d       	cpi	r23, 0xD5	; 213
 32a:	61 76       	andi	r22, 0x61	; 97
 32c:	72 35       	cpi	r23, 0x52	; 82
 32e:	20 2d       	mov	r18, r0
 330:	67 20       	and	r6, r7
 332:	2d 4f       	sbci	r18, 0xFD	; 253
 334:	73 20       	and	r7, r3
 336:	2d 66       	ori	r18, 0x6D	; 109
 338:	70 61       	ori	r23, 0x10	; 16
 33a:	63 6b       	ori	r22, 0xB3	; 179
 33c:	2d 73       	andi	r18, 0x3D	; 61
 33e:	74 72       	andi	r23, 0x24	; 36
 340:	75 63       	ori	r23, 0x35	; 53
 342:	74 20       	and	r7, r4
 344:	2d 66       	ori	r18, 0x6D	; 109
 346:	73 68       	ori	r23, 0x83	; 131
 348:	6f 72       	andi	r22, 0x2F	; 47
 34a:	74 2d       	mov	r23, r4
 34c:	65 6e       	ori	r22, 0xE5	; 229
 34e:	75 6d       	ori	r23, 0xD5	; 213
 350:	73 20       	and	r7, r3
 352:	2d 66       	ori	r18, 0x6D	; 109
 354:	75 6e       	ori	r23, 0xE5	; 229
 356:	73 69       	ori	r23, 0x93	; 147
 358:	67 6e       	ori	r22, 0xE7	; 231
 35a:	65 64       	ori	r22, 0x45	; 69
 35c:	2d 62       	ori	r18, 0x2D	; 45
 35e:	69 74       	andi	r22, 0x49	; 73
 360:	66 69       	ori	r22, 0x96	; 150
 362:	65 6c       	ori	r22, 0xC5	; 197
 364:	64 73       	andi	r22, 0x34	; 52
 366:	20 2d       	mov	r18, r0
 368:	66 75       	andi	r22, 0x56	; 86
 36a:	6e 73       	andi	r22, 0x3E	; 62
 36c:	69 67       	ori	r22, 0x79	; 121
 36e:	6e 65       	ori	r22, 0x5E	; 94
 370:	64 2d       	mov	r22, r4
 372:	63 68       	ori	r22, 0x83	; 131
 374:	61 72       	andi	r22, 0x21	; 33
 376:	20 2d       	mov	r18, r0
 378:	6d 6e       	ori	r22, 0xED	; 237
 37a:	2d 66       	ori	r18, 0x6D	; 109
 37c:	6c 61       	ori	r22, 0x1C	; 28
 37e:	73 68       	ori	r23, 0x83	; 131
 380:	3d 31       	cpi	r19, 0x1D	; 29
 382:	20 2d       	mov	r18, r0
 384:	6d 6e       	ori	r22, 0xED	; 237
 386:	6f 2d       	mov	r22, r15
 388:	73 6b       	ori	r23, 0xB3	; 179
 38a:	69 70       	andi	r22, 0x09	; 9
 38c:	2d 62       	ori	r18, 0x2D	; 45
 38e:	75 67       	ori	r23, 0x75	; 117
 390:	20 2d       	mov	r18, r0
 392:	66 6e       	ori	r22, 0xE6	; 230
 394:	6f 2d       	mov	r22, r15
 396:	72 74       	andi	r23, 0x42	; 66
 398:	74 69       	ori	r23, 0x94	; 148
 39a:	20 2d       	mov	r18, r0
 39c:	66 6e       	ori	r22, 0xE6	; 230
 39e:	6f 2d       	mov	r22, r15
 3a0:	65 6e       	ori	r22, 0xE5	; 229
 3a2:	66 6f       	ori	r22, 0xF6	; 246
 3a4:	72 63       	ori	r23, 0x32	; 50
 3a6:	65 2d       	mov	r22, r5
 3a8:	65 68       	ori	r22, 0x85	; 133
 3aa:	2d 73       	andi	r18, 0x3D	; 61
 3ac:	70 65       	ori	r23, 0x50	; 80
 3ae:	63 73       	andi	r22, 0x33	; 51
 3b0:	20 2d       	mov	r18, r0
 3b2:	66 6e       	ori	r22, 0xE6	; 230
 3b4:	6f 2d       	mov	r22, r15
 3b6:	65 78       	andi	r22, 0x85	; 133
 3b8:	63 65       	ori	r22, 0x53	; 83
 3ba:	70 74       	andi	r23, 0x40	; 64
 3bc:	69 6f       	ori	r22, 0xF9	; 249
 3be:	6e 73       	andi	r22, 0x3E	; 62
 3c0:	00 6c       	ori	r16, 0xC0	; 192
 3c2:	6f 6e       	ori	r22, 0xEF	; 239
 3c4:	67 20       	and	r6, r7
 3c6:	6c 6f       	ori	r22, 0xFC	; 252
 3c8:	6e 67       	ori	r22, 0x7E	; 126
 3ca:	20 69       	ori	r18, 0x90	; 144
 3cc:	6e 74       	andi	r22, 0x4E	; 78
 3ce:	00 6f       	ori	r16, 0xF0	; 240
 3d0:	6d 67       	ori	r22, 0x7D	; 125
 3d2:	77 74       	andi	r23, 0x47	; 71
 3d4:	66 00       	.word	0x0066	; ????
 3d6:	2e 2e       	mov	r2, r30
 3d8:	2f 2e       	mov	r2, r31
 3da:	2e 2f       	mov	r18, r30
 3dc:	2e 2e       	mov	r2, r30
 3de:	2f 2e       	mov	r2, r31
 3e0:	2e 2f       	mov	r18, r30
 3e2:	6c 69       	ori	r22, 0x9C	; 156
 3e4:	62 67       	ori	r22, 0x72	; 114
 3e6:	63 63       	ori	r22, 0x33	; 51
 3e8:	2f 63       	ori	r18, 0x3F	; 63
 3ea:	6f 6e       	ori	r22, 0xEF	; 239
 3ec:	66 69       	ori	r22, 0x96	; 150
 3ee:	67 2f       	mov	r22, r23
 3f0:	61 76       	andi	r22, 0x61	; 97
 3f2:	72 2f       	mov	r23, r18
 3f4:	6c 69       	ori	r22, 0x9C	; 156
 3f6:	62 31       	cpi	r22, 0x12	; 18
 3f8:	66 75       	andi	r22, 0x56	; 86
 3fa:	6e 63       	ori	r22, 0x3E	; 62
 3fc:	73 2e       	mov	r7, r19
 3fe:	53 00       	.word	0x0053	; ????
 400:	2f 70       	andi	r18, 0x0F	; 15
 402:	72 69       	ori	r23, 0x92	; 146
 404:	76 61       	ori	r23, 0x16	; 22
 406:	74 65       	ori	r23, 0x54	; 84
 408:	2f 74       	andi	r18, 0x4F	; 79
 40a:	6d 70       	andi	r22, 0x0D	; 13
 40c:	2f 61       	ori	r18, 0x1F	; 31
 40e:	76 72       	andi	r23, 0x26	; 38
 410:	2d 67       	ori	r18, 0x7D	; 125
 412:	63 63       	ori	r22, 0x33	; 51
 414:	2d 32       	cpi	r18, 0x2D	; 45
 416:	30 31       	cpi	r19, 0x10	; 16
 418:	38 30       	cpi	r19, 0x08	; 8
 41a:	32 32       	cpi	r19, 0x22	; 34
 41c:	38 2d       	mov	r19, r8
 41e:	36 31       	cpi	r19, 0x16	; 22
 420:	30 35       	cpi	r19, 0x50	; 80
 422:	36 2d       	mov	r19, r6
 424:	31 74       	andi	r19, 0x41	; 65
 426:	37 77       	andi	r19, 0x77	; 119
 428:	7a 6f       	ori	r23, 0xFA	; 250
 42a:	6f 2f       	mov	r22, r31
 42c:	67 63       	ori	r22, 0x37	; 55
 42e:	63 2d       	mov	r22, r3
 430:	37 2e       	mov	r3, r23
 432:	33 2e       	mov	r3, r19
 434:	30 2f       	mov	r19, r16
 436:	62 75       	andi	r22, 0x52	; 82
 438:	69 6c       	ori	r22, 0xC9	; 201
 43a:	64 2f       	mov	r22, r20
 43c:	61 76       	andi	r22, 0x61	; 97
 43e:	72 2f       	mov	r23, r18
 440:	61 76       	andi	r22, 0x61	; 97
 442:	72 35       	cpi	r23, 0x52	; 82
 444:	2f 6c       	ori	r18, 0xCF	; 207
 446:	69 62       	ori	r22, 0x29	; 41
 448:	67 63       	ori	r22, 0x37	; 55
 44a:	63 00       	.word	0x0063	; ????
 44c:	47 4e       	sbci	r20, 0xE7	; 231
 44e:	55 20       	and	r5, r5
 450:	41 53       	subi	r20, 0x31	; 49
 452:	20 32       	cpi	r18, 0x20	; 32
 454:	2e 33       	cpi	r18, 0x3E	; 62
 456:	30 00       	.word	0x0030	; ????

Disassembly of section .debug_ranges:

00000000 <.debug_ranges>:
   0:	94 00       	.word	0x0094	; ????
   2:	00 00       	nop
   4:	9a 00       	.word	0x009a	; ????
	...
